ARM GAS  C:\Users\AARONW~1\AppData\Local\Temp\ccWvYK3W.s 			page 1


   1              		.cpu cortex-m0
   2              		.fpu softvfp
   3              		.eabi_attribute 20, 1
   4              		.eabi_attribute 21, 1
   5              		.eabi_attribute 23, 3
   6              		.eabi_attribute 24, 1
   7              		.eabi_attribute 25, 1
   8              		.eabi_attribute 26, 1
   9              		.eabi_attribute 30, 6
  10              		.eabi_attribute 34, 0
  11              		.eabi_attribute 18, 4
  12              		.code	16
  13              		.file	"main.c"
  14              		.text
  15              	.Ltext0:
  16              		.cfi_sections	.debug_frame
  17              		.section	.rodata
  18              		.align	2
  19              	.LC1:
  20 0000 0A0D2A2A 		.ascii	"\012\015*******************************************"
  20      2A2A2A2A 
  20      2A2A2A2A 
  20      2A2A2A2A 
  20      2A2A2A2A 
  21 002d 2A2A2A2A 		.ascii	"*****************\000"
  21      2A2A2A2A 
  21      2A2A2A2A 
  21      2A2A2A2A 
  21      2A00
  22 003f 00       		.align	2
  23              	.LC3:
  24 0040 0A0D2A2A 		.ascii	"\012\015***************** BLE UART example project "
  24      2A2A2A2A 
  24      2A2A2A2A 
  24      2A2A2A2A 
  24      2A2A2A20 
  25 006d 2A2A2A2A 		.ascii	"*****************\000"
  25      2A2A2A2A 
  25      2A2A2A2A 
  25      2A2A2A2A 
  25      2A00
  26 007f 00       		.align	2
  27              	.LC5:
  28 0080 0A0D2A2A 		.ascii	"\012\015*******************************************"
  28      2A2A2A2A 
  28      2A2A2A2A 
  28      2A2A2A2A 
  28      2A2A2A2A 
  29 00ad 2A2A2A2A 		.ascii	"*****************\012\015\000"
  29      2A2A2A2A 
  29      2A2A2A2A 
  29      2A2A2A2A 
  29      2A0A0D00 
  30 00c1 000000   		.align	2
  31              	.LC7:
  32 00c4 0A0D4465 		.ascii	"\012\015Device role \011: PERIPHERAL\000"
  32      76696365 
ARM GAS  C:\Users\AARONW~1\AppData\Local\Temp\ccWvYK3W.s 			page 2


  32      20726F6C 
  32      6520093A 
  32      20504552 
  33              		.align	2
  34              	.LC9:
  35 00e0 0A0D4C6F 		.ascii	"\012\015Low Power Mode \011: DISABLED\000"
  35      7720506F 
  35      77657220 
  35      4D6F6465 
  35      20093A20 
  36 00fd 000000   		.align	2
  37              	.LC11:
  38 0100 0A0D466C 		.ascii	"\012\015Flow Control \011: DISABLED\000"
  38      6F772043 
  38      6F6E7472 
  38      6F6C2009 
  38      3A204449 
  39 011b 00       		.align	2
  40              	.LC13:
  41 011c 0A0D00   		.ascii	"\012\015\000"
  42 011f 00       		.align	2
  43              	.LC15:
  44 0120 0A0D0909 		.ascii	"\012\015\011\011CyBle stack initilization FAILED!!!"
  44      4379426C 
  44      65207374 
  44      61636B20 
  44      696E6974 
  45 0147 200A0D20 		.ascii	" \012\015 \000"
  45      00
  46              		.section	.text.main,"ax",%progbits
  47              		.align	2
  48              		.global	main
  49              		.code	16
  50              		.thumb_func
  51              		.type	main, %function
  52              	main:
  53              	.LFB37:
  54              		.file 1 "main.c"
   1:main.c        **** /*******************************************************************************
   2:main.c        **** * File Name: main.c
   3:main.c        **** *
   4:main.c        **** * Version: 1.0
   5:main.c        **** *
   6:main.c        **** * Description:
   7:main.c        **** *  BLE example project that works as a BLE to UART bridge, using 
   8:main.c        **** *  Cypress's BLE component APIs and application layer callback. 
   9:main.c        **** *  This project demostrates a custom service usage for BLE to UART  
  10:main.c        **** *  bridge in a PERIPHERAL role.
  11:main.c        **** *
  12:main.c        **** * References:
  13:main.c        **** *  BLUETOOTH SPECIFICATION Version 4.1
  14:main.c        **** *
  15:main.c        **** * Hardware Dependency:
  16:main.c        **** *  (1) CY8CKIT-042 BLE
  17:main.c        **** *  (2) An external UART transciever (if flow control is needed) 
  18:main.c        **** *
  19:main.c        **** ********************************************************************************
ARM GAS  C:\Users\AARONW~1\AppData\Local\Temp\ccWvYK3W.s 			page 3


  20:main.c        **** * Copyright 2015, Cypress Semiconductor Corporation.  All rights reserved.
  21:main.c        **** * You may use this file only in accordance with the license, terms, conditions,
  22:main.c        **** * disclaimers, and limitations in the end user license agreement accompanying
  23:main.c        **** * the software package with which this file was provided.
  24:main.c        **** *******************************************************************************/
  25:main.c        **** 
  26:main.c        **** #include "main.h"
  27:main.c        **** 
  28:main.c        **** int main()
  29:main.c        **** {
  55              		.loc 1 29 0
  56              		.cfi_startproc
  57 0000 90B5     		push	{r4, r7, lr}
  58              		.cfi_def_cfa_offset 12
  59              		.cfi_offset 4, -12
  60              		.cfi_offset 7, -8
  61              		.cfi_offset 14, -4
  62 0002 83B0     		sub	sp, sp, #12
  63              		.cfi_def_cfa_offset 24
  64 0004 00AF     		add	r7, sp, #0
  65              		.cfi_def_cfa_register 7
  30:main.c        ****     
  31:main.c        ****     #ifdef LOW_POWER_MODE    
  32:main.c        ****         CYBLE_LP_MODE_T         lpMode;
  33:main.c        ****         CYBLE_BLESS_STATE_T     blessState;
  34:main.c        ****     #endif
  35:main.c        ****     
  36:main.c        ****     CYBLE_API_RESULT_T      bleApiResult;
  37:main.c        ****     
  38:main.c        ****     CyGlobalIntEnable;
  66              		.loc 1 38 0
  67              	@ 38 "main.c" 1
  68 0006 62B6     		CPSIE   i
  69              	@ 0 "" 2
  39:main.c        ****     
  40:main.c        ****     /* Start UART and BLE component and display project information */
  41:main.c        ****     UART_Start();   
  70              		.loc 1 41 0
  71              		.code	16
  72 0008 FFF7FEFF 		bl	UART_Start
  42:main.c        ****     bleApiResult = CyBle_Start(AppCallBack); 
  73              		.loc 1 42 0
  74 000c BC1D     		add	r4, r7, #6
  75 000e 294B     		ldr	r3, .L7
  76 0010 181C     		mov	r0, r3
  77 0012 FFF7FEFF 		bl	CyBle_Start
  78 0016 031C     		mov	r3, r0
  79 0018 2380     		strh	r3, [r4]
  43:main.c        ****     
  44:main.c        ****     if(bleApiResult == CYBLE_ERROR_OK)
  80              		.loc 1 44 0
  81 001a BB1D     		add	r3, r7, #6
  82 001c 1B88     		ldrh	r3, [r3]
  83 001e 002B     		cmp	r3, #0
  84 0020 1ED1     		bne	.L2
  45:main.c        ****     {
  46:main.c        ****         
ARM GAS  C:\Users\AARONW~1\AppData\Local\Temp\ccWvYK3W.s 			page 4


  47:main.c        ****         #ifdef PRINT_MESSAGE_LOG
  48:main.c        ****             UART_UartPutString("\n\r************************************************************");
  85              		.loc 1 48 0
  86 0022 254B     		ldr	r3, .L7+4
  87 0024 181C     		mov	r0, r3
  88 0026 FFF7FEFF 		bl	UART_UartPutString
  49:main.c        ****             UART_UartPutString("\n\r***************** BLE UART example project *****************");
  89              		.loc 1 49 0
  90 002a 244B     		ldr	r3, .L7+8
  91 002c 181C     		mov	r0, r3
  92 002e FFF7FEFF 		bl	UART_UartPutString
  50:main.c        ****             UART_UartPutString("\n\r************************************************************\n\
  93              		.loc 1 50 0
  94 0032 234B     		ldr	r3, .L7+12
  95 0034 181C     		mov	r0, r3
  96 0036 FFF7FEFF 		bl	UART_UartPutString
  51:main.c        ****             UART_UartPutString("\n\rDevice role \t: PERIPHERAL");
  97              		.loc 1 51 0
  98 003a 224B     		ldr	r3, .L7+16
  99 003c 181C     		mov	r0, r3
 100 003e FFF7FEFF 		bl	UART_UartPutString
  52:main.c        ****             
  53:main.c        ****             #ifdef LOW_POWER_MODE
  54:main.c        ****                 UART_UartPutString("\n\rLow Power Mode \t: ENABLED");
  55:main.c        ****             #else
  56:main.c        ****                 UART_UartPutString("\n\rLow Power Mode \t: DISABLED");
 101              		.loc 1 56 0
 102 0042 214B     		ldr	r3, .L7+20
 103 0044 181C     		mov	r0, r3
 104 0046 FFF7FEFF 		bl	UART_UartPutString
  57:main.c        ****             #endif
  58:main.c        ****             
  59:main.c        ****             #ifdef FLOW_CONTROL
  60:main.c        ****                 UART_UartPutString("\n\rFlow Control \t: ENABLED");  
  61:main.c        ****             #else
  62:main.c        ****                 UART_UartPutString("\n\rFlow Control \t: DISABLED");
 105              		.loc 1 62 0
 106 004a 204B     		ldr	r3, .L7+24
 107 004c 181C     		mov	r0, r3
 108 004e FFF7FEFF 		bl	UART_UartPutString
  63:main.c        ****                 UART_UartPutString("\n\r");
 109              		.loc 1 63 0
 110 0052 1F4B     		ldr	r3, .L7+28
 111 0054 181C     		mov	r0, r3
 112 0056 FFF7FEFF 		bl	UART_UartPutString
  64:main.c        ****             #endif
  65:main.c        ****             
  66:main.c        ****         #endif
  67:main.c        ****     }
  68:main.c        ****     else
  69:main.c        ****     {
  70:main.c        ****         #ifdef PRINT_MESSAGE_LOG   
  71:main.c        ****             UART_UartPutString("\n\r\t\tCyBle stack initilization FAILED!!! \n\r ");
  72:main.c        ****         #endif
  73:main.c        ****         
  74:main.c        ****         /* Enter infinite loop */
  75:main.c        ****         while(1);
ARM GAS  C:\Users\AARONW~1\AppData\Local\Temp\ccWvYK3W.s 			page 5


  76:main.c        ****         
  77:main.c        ****     }
  78:main.c        ****     
  79:main.c        ****     CyBle_ProcessEvents();
 113              		.loc 1 79 0
 114 005a FFF7FEFF 		bl	CyBle_ProcessEvents
 115 005e 04E0     		b	.L6
 116              	.L2:
  71:main.c        ****         #endif
 117              		.loc 1 71 0
 118 0060 1C4B     		ldr	r3, .L7+32
 119 0062 181C     		mov	r0, r3
 120 0064 FFF7FEFF 		bl	UART_UartPutString
 121              	.L4:
  75:main.c        ****         
 122              		.loc 1 75 0 discriminator 1
 123 0068 FEE7     		b	.L4
 124              	.L6:
  80:main.c        ****     
  81:main.c        ****     /***************************************************************************
  82:main.c        ****     * Main polling loop
  83:main.c        ****     ***************************************************************************/
  84:main.c        ****     ;
  85:main.c        ****     
  86:main.c        ****     while(1)
  87:main.c        ****     {    
  88:main.c        ****         
  89:main.c        ****         CyDelay(500);
 125              		.loc 1 89 0
 126 006a FA23     		mov	r3, #250
 127 006c 5B00     		lsl	r3, r3, #1
 128 006e 181C     		mov	r0, r3
 129 0070 FFF7FEFF 		bl	CyDelay
  90:main.c        ****         CyDelay(500);
 130              		.loc 1 90 0
 131 0074 FA23     		mov	r3, #250
 132 0076 5B00     		lsl	r3, r3, #1
 133 0078 181C     		mov	r0, r3
 134 007a FFF7FEFF 		bl	CyDelay
  91:main.c        ****         CyDelay(500);
 135              		.loc 1 91 0
 136 007e FA23     		mov	r3, #250
 137 0080 5B00     		lsl	r3, r3, #1
 138 0082 181C     		mov	r0, r3
 139 0084 FFF7FEFF 		bl	CyDelay
  92:main.c        ****         CyDelay(500);
 140              		.loc 1 92 0
 141 0088 FA23     		mov	r3, #250
 142 008a 5B00     		lsl	r3, r3, #1
 143 008c 181C     		mov	r0, r3
 144 008e FFF7FEFF 		bl	CyDelay
  93:main.c        ****         if (UART_SpiUartGetTxBufferSize() > 0){
 145              		.loc 1 93 0
 146 0092 FFF7FEFF 		bl	UART_SpiUartGetTxBufferSize
 147 0096 031E     		sub	r3, r0, #0
 148 0098 05D0     		beq	.L5
  94:main.c        **** 
ARM GAS  C:\Users\AARONW~1\AppData\Local\Temp\ccWvYK3W.s 			page 6


  95:main.c        ****             PWM1_Start(); /* 4kHz */
 149              		.loc 1 95 0
 150 009a FFF7FEFF 		bl	PWM1_Start
  96:main.c        ****             PWM2_Start();  /* 7kHz */
 151              		.loc 1 96 0
 152 009e FFF7FEFF 		bl	PWM2_Start
  97:main.c        ****             PWM3_Start();  /* 9kHz */
 153              		.loc 1 97 0
 154 00a2 FFF7FEFF 		bl	PWM3_Start
 155              	.L5:
  98:main.c        ****         
  99:main.c        ****           
 100:main.c        ****         }
 101:main.c        **** 
 102:main.c        ****         
 103:main.c        ****         
 104:main.c        ****         #ifdef LOW_POWER_MODE
 105:main.c        ****             
 106:main.c        ****             if((CyBle_GetState() != CYBLE_STATE_INITIALIZING) && (CyBle_GetState() != CYBLE_STATE_D
 107:main.c        ****             {
 108:main.c        ****                 /* Enter DeepSleep mode between connection intervals */
 109:main.c        ****                 
 110:main.c        ****                 lpMode = CyBle_EnterLPM(CYBLE_BLESS_DEEPSLEEP);
 111:main.c        ****                 CyGlobalIntDisable;
 112:main.c        ****                 blessState = CyBle_GetBleSsState();
 113:main.c        **** 
 114:main.c        ****                 if(lpMode == CYBLE_BLESS_DEEPSLEEP) 
 115:main.c        ****                 {   
 116:main.c        ****                     if((blessState == CYBLE_BLESS_STATE_ECO_ON || blessState == CYBLE_BLESS_STATE_D
 117:main.c        ****                             (UART_SpiUartGetTxBufferSize() + UART_GET_TX_FIFO_SR_VALID) == 0u)
 118:main.c        ****                     {
 119:main.c        ****                         EnableUartRxInt();
 120:main.c        ****                         CySysPmSleep();
 121:main.c        ****                         DisableUartRxInt();
 122:main.c        ****                     }
 123:main.c        ****                 }
 124:main.c        ****                 else
 125:main.c        ****                 {
 126:main.c        ****                     if((blessState != CYBLE_BLESS_STATE_EVENT_CLOSE) && \
 127:main.c        ****                             (UART_SpiUartGetTxBufferSize() + UART_GET_TX_FIFO_SR_VALID) == 0u)
 128:main.c        ****                     {
 129:main.c        ****                         EnableUartRxInt();
 130:main.c        ****                         CySysPmSleep();
 131:main.c        ****                         DisableUartRxInt();
 132:main.c        ****                     }
 133:main.c        ****                 }
 134:main.c        ****                 CyGlobalIntEnable;
 135:main.c        ****                 
 136:main.c        ****                 /* Handle advertising led blinking */
 137:main.c        ****                 HandleLeds();
 138:main.c        ****             }
 139:main.c        ****         #else
 140:main.c        ****             HandleLeds();
 156              		.loc 1 140 0
 157 00a6 FFF7FEFF 		bl	HandleLeds
 141:main.c        ****         #endif
 142:main.c        ****         
ARM GAS  C:\Users\AARONW~1\AppData\Local\Temp\ccWvYK3W.s 			page 7


 143:main.c        ****         
 144:main.c        ****         
 145:main.c        ****         /*******************************************************************
 146:main.c        ****         *  Process all pending BLE events in the stack
 147:main.c        ****         *******************************************************************/       
 148:main.c        ****         HandleBleProcessing();
 158              		.loc 1 148 0
 159 00aa FFF7FEFF 		bl	HandleBleProcessing
 149:main.c        ****         CyBle_ProcessEvents();
 160              		.loc 1 149 0
 161 00ae FFF7FEFF 		bl	CyBle_ProcessEvents
 150:main.c        ****     }
 162              		.loc 1 150 0
 163 00b2 DAE7     		b	.L6
 164              	.L8:
 165              		.align	2
 166              	.L7:
 167 00b4 00000000 		.word	AppCallBack
 168 00b8 00000000 		.word	.LC1
 169 00bc 40000000 		.word	.LC3
 170 00c0 80000000 		.word	.LC5
 171 00c4 C4000000 		.word	.LC7
 172 00c8 E0000000 		.word	.LC9
 173 00cc 00010000 		.word	.LC11
 174 00d0 1C010000 		.word	.LC13
 175 00d4 20010000 		.word	.LC15
 176              		.cfi_endproc
 177              	.LFE37:
 178              		.size	main, .-main
 179              		.text
 180              	.Letext0:
 181              		.file 2 "Generated_Source\\PSoC4/BLE_Stack.h"