ARM GAS  C:\Users\AARONW~1\AppData\Local\Temp\ccUNoqBC.s 			page 1


   1              		.syntax unified
   2              		.cpu cortex-m3
   3              		.fpu softvfp
   4              		.eabi_attribute 20, 1
   5              		.eabi_attribute 21, 1
   6              		.eabi_attribute 23, 3
   7              		.eabi_attribute 24, 1
   8              		.eabi_attribute 25, 1
   9              		.eabi_attribute 26, 1
  10              		.eabi_attribute 30, 6
  11              		.eabi_attribute 34, 1
  12              		.eabi_attribute 18, 4
  13              		.thumb
  14              		.file	"SineWaveGen.c"
  15              		.text
  16              	.Ltext0:
  17              		.cfi_sections	.debug_frame
  18              		.global	SineWaveGen_initVar
  19              		.bss
  20              		.type	SineWaveGen_initVar, %object
  21              		.size	SineWaveGen_initVar, 1
  22              	SineWaveGen_initVar:
  23 0000 00       		.space	1
  24              		.global	SineWaveGen_wave1
  25              		.section	.rodata
  26              		.align	2
  27              		.type	SineWaveGen_wave1, %object
  28              		.size	SineWaveGen_wave1, 100
  29              	SineWaveGen_wave1:
  30 0000 58       		.byte	88
  31 0001 5D       		.byte	93
  32 0002 62       		.byte	98
  33 0003 68       		.byte	104
  34 0004 6D       		.byte	109
  35 0005 73       		.byte	115
  36 0006 78       		.byte	120
  37 0007 7D       		.byte	125
  38 0008 82       		.byte	-126
  39 0009 86       		.byte	-122
  40 000a 8B       		.byte	-117
  41 000b 8F       		.byte	-113
  42 000c 93       		.byte	-109
  43 000d 97       		.byte	-105
  44 000e 9B       		.byte	-101
  45 000f 9E       		.byte	-98
  46 0010 A1       		.byte	-95
  47 0011 A4       		.byte	-92
  48 0012 A7       		.byte	-89
  49 0013 A9       		.byte	-87
  50 0014 AB       		.byte	-85
  51 0015 AC       		.byte	-84
  52 0016 AD       		.byte	-83
  53 0017 AE       		.byte	-82
  54 0018 AF       		.byte	-81
  55 0019 AF       		.byte	-81
  56 001a AF       		.byte	-81
  57 001b AE       		.byte	-82
ARM GAS  C:\Users\AARONW~1\AppData\Local\Temp\ccUNoqBC.s 			page 2


  58 001c AD       		.byte	-83
  59 001d AC       		.byte	-84
  60 001e AB       		.byte	-85
  61 001f A9       		.byte	-87
  62 0020 A7       		.byte	-89
  63 0021 A4       		.byte	-92
  64 0022 A1       		.byte	-95
  65 0023 9E       		.byte	-98
  66 0024 9B       		.byte	-101
  67 0025 97       		.byte	-105
  68 0026 93       		.byte	-109
  69 0027 8F       		.byte	-113
  70 0028 8B       		.byte	-117
  71 0029 86       		.byte	-122
  72 002a 82       		.byte	-126
  73 002b 7D       		.byte	125
  74 002c 78       		.byte	120
  75 002d 73       		.byte	115
  76 002e 6D       		.byte	109
  77 002f 68       		.byte	104
  78 0030 62       		.byte	98
  79 0031 5D       		.byte	93
  80 0032 58       		.byte	88
  81 0033 52       		.byte	82
  82 0034 4D       		.byte	77
  83 0035 47       		.byte	71
  84 0036 42       		.byte	66
  85 0037 3C       		.byte	60
  86 0038 37       		.byte	55
  87 0039 32       		.byte	50
  88 003a 2D       		.byte	45
  89 003b 29       		.byte	41
  90 003c 24       		.byte	36
  91 003d 20       		.byte	32
  92 003e 1C       		.byte	28
  93 003f 18       		.byte	24
  94 0040 14       		.byte	20
  95 0041 11       		.byte	17
  96 0042 0E       		.byte	14
  97 0043 0B       		.byte	11
  98 0044 08       		.byte	8
  99 0045 06       		.byte	6
 100 0046 04       		.byte	4
 101 0047 03       		.byte	3
 102 0048 02       		.byte	2
 103 0049 01       		.byte	1
 104 004a 00       		.byte	0
 105 004b 00       		.byte	0
 106 004c 00       		.byte	0
 107 004d 01       		.byte	1
 108 004e 02       		.byte	2
 109 004f 03       		.byte	3
 110 0050 04       		.byte	4
 111 0051 06       		.byte	6
 112 0052 08       		.byte	8
 113 0053 0B       		.byte	11
 114 0054 0E       		.byte	14
ARM GAS  C:\Users\AARONW~1\AppData\Local\Temp\ccUNoqBC.s 			page 3


 115 0055 11       		.byte	17
 116 0056 14       		.byte	20
 117 0057 18       		.byte	24
 118 0058 1C       		.byte	28
 119 0059 20       		.byte	32
 120 005a 24       		.byte	36
 121 005b 29       		.byte	41
 122 005c 2D       		.byte	45
 123 005d 32       		.byte	50
 124 005e 37       		.byte	55
 125 005f 3C       		.byte	60
 126 0060 42       		.byte	66
 127 0061 47       		.byte	71
 128 0062 4D       		.byte	77
 129 0063 52       		.byte	82
 130              		.global	SineWaveGen_wave2
 131              		.align	2
 132              		.type	SineWaveGen_wave2, %object
 133              		.size	SineWaveGen_wave2, 100
 134              	SineWaveGen_wave2:
 135 0064 80       		.byte	-128
 136 0065 84       		.byte	-124
 137 0066 8A       		.byte	-118
 138 0067 8F       		.byte	-113
 139 0068 94       		.byte	-108
 140 0069 98       		.byte	-104
 141 006a 9E       		.byte	-98
 142 006b A2       		.byte	-94
 143 006c A8       		.byte	-88
 144 006d AC       		.byte	-84
 145 006e B2       		.byte	-78
 146 006f B6       		.byte	-74
 147 0070 BC       		.byte	-68
 148 0071 C0       		.byte	-64
 149 0072 C6       		.byte	-58
 150 0073 CA       		.byte	-54
 151 0074 D0       		.byte	-48
 152 0075 D5       		.byte	-43
 153 0076 DA       		.byte	-38
 154 0077 DE       		.byte	-34
 155 0078 E4       		.byte	-28
 156 0079 E8       		.byte	-24
 157 007a EE       		.byte	-18
 158 007b F2       		.byte	-14
 159 007c F8       		.byte	-8
 160 007d FC       		.byte	-4
 161 007e F8       		.byte	-8
 162 007f F2       		.byte	-14
 163 0080 EE       		.byte	-18
 164 0081 E8       		.byte	-24
 165 0082 E4       		.byte	-28
 166 0083 DE       		.byte	-34
 167 0084 DA       		.byte	-38
 168 0085 D4       		.byte	-44
 169 0086 D0       		.byte	-48
 170 0087 CA       		.byte	-54
 171 0088 C6       		.byte	-58
ARM GAS  C:\Users\AARONW~1\AppData\Local\Temp\ccUNoqBC.s 			page 4


 172 0089 C0       		.byte	-64
 173 008a BC       		.byte	-68
 174 008b B6       		.byte	-74
 175 008c B2       		.byte	-78
 176 008d AD       		.byte	-83
 177 008e A8       		.byte	-88
 178 008f A2       		.byte	-94
 179 0090 9E       		.byte	-98
 180 0091 98       		.byte	-104
 181 0092 94       		.byte	-108
 182 0093 8F       		.byte	-113
 183 0094 8A       		.byte	-118
 184 0095 84       		.byte	-124
 185 0096 80       		.byte	-128
 186 0097 7A       		.byte	122
 187 0098 76       		.byte	118
 188 0099 70       		.byte	112
 189 009a 6B       		.byte	107
 190 009b 66       		.byte	102
 191 009c 61       		.byte	97
 192 009d 5D       		.byte	93
 193 009e 58       		.byte	88
 194 009f 53       		.byte	83
 195 00a0 4E       		.byte	78
 196 00a1 49       		.byte	73
 197 00a2 44       		.byte	68
 198 00a3 3E       		.byte	62
 199 00a4 39       		.byte	57
 200 00a5 34       		.byte	52
 201 00a6 2F       		.byte	47
 202 00a7 2A       		.byte	42
 203 00a8 25       		.byte	37
 204 00a9 21       		.byte	33
 205 00aa 1C       		.byte	28
 206 00ab 17       		.byte	23
 207 00ac 12       		.byte	18
 208 00ad 0D       		.byte	13
 209 00ae 08       		.byte	8
 210 00af 03       		.byte	3
 211 00b0 08       		.byte	8
 212 00b1 0D       		.byte	13
 213 00b2 12       		.byte	18
 214 00b3 17       		.byte	23
 215 00b4 1C       		.byte	28
 216 00b5 21       		.byte	33
 217 00b6 25       		.byte	37
 218 00b7 2A       		.byte	42
 219 00b8 2F       		.byte	47
 220 00b9 34       		.byte	52
 221 00ba 39       		.byte	57
 222 00bb 3E       		.byte	62
 223 00bc 44       		.byte	68
 224 00bd 49       		.byte	73
 225 00be 4E       		.byte	78
 226 00bf 53       		.byte	83
 227 00c0 58       		.byte	88
 228 00c1 5D       		.byte	93
ARM GAS  C:\Users\AARONW~1\AppData\Local\Temp\ccUNoqBC.s 			page 5


 229 00c2 61       		.byte	97
 230 00c3 66       		.byte	102
 231 00c4 6B       		.byte	107
 232 00c5 70       		.byte	112
 233 00c6 76       		.byte	118
 234 00c7 7A       		.byte	122
 235              		.bss
 236              	SineWaveGen_Wave1Chan:
 237 0001 00       		.space	1
 238              	SineWaveGen_Wave2Chan:
 239 0002 00       		.space	1
 240              	SineWaveGen_Wave1TD:
 241 0003 00       		.space	1
 242              	SineWaveGen_Wave2TD:
 243 0004 00       		.space	1
 244              		.section	.text.SineWaveGen_Init,"ax",%progbits
 245              		.align	2
 246              		.global	SineWaveGen_Init
 247              		.thumb
 248              		.thumb_func
 249              		.type	SineWaveGen_Init, %function
 250              	SineWaveGen_Init:
 251              	.LFB0:
 252              		.file 1 "Generated_Source\\PSoC5\\SineWaveGen.c"
   1:Generated_Source\PSoC5/SineWaveGen.c **** /*******************************************************************************
   2:Generated_Source\PSoC5/SineWaveGen.c **** * File Name: SineWaveGen.c
   3:Generated_Source\PSoC5/SineWaveGen.c **** * Version 2.10
   4:Generated_Source\PSoC5/SineWaveGen.c **** *
   5:Generated_Source\PSoC5/SineWaveGen.c **** * Description:
   6:Generated_Source\PSoC5/SineWaveGen.c **** *  This file provides the source code for the 8-bit Waveform DAC 
   7:Generated_Source\PSoC5/SineWaveGen.c **** *  (WaveDAC8) Component.
   8:Generated_Source\PSoC5/SineWaveGen.c **** *
   9:Generated_Source\PSoC5/SineWaveGen.c **** ********************************************************************************
  10:Generated_Source\PSoC5/SineWaveGen.c **** * Copyright 2013, Cypress Semiconductor Corporation.  All rights reserved.
  11:Generated_Source\PSoC5/SineWaveGen.c **** * You may use this file only in accordance with the license, terms, conditions,
  12:Generated_Source\PSoC5/SineWaveGen.c **** * disclaimers, and limitations in the end user license agreement accompanying
  13:Generated_Source\PSoC5/SineWaveGen.c **** * the software package with which this file was provided.
  14:Generated_Source\PSoC5/SineWaveGen.c **** *******************************************************************************/
  15:Generated_Source\PSoC5/SineWaveGen.c **** 
  16:Generated_Source\PSoC5/SineWaveGen.c **** #include "SineWaveGen.h"
  17:Generated_Source\PSoC5/SineWaveGen.c **** 
  18:Generated_Source\PSoC5/SineWaveGen.c **** uint8  SineWaveGen_initVar = 0u;
  19:Generated_Source\PSoC5/SineWaveGen.c **** 
  20:Generated_Source\PSoC5/SineWaveGen.c **** const uint8 CYCODE SineWaveGen_wave1[SineWaveGen_WAVE1_LENGTH] = { 88u,93u,98u,104u,109u,115u,120u,
  21:Generated_Source\PSoC5/SineWaveGen.c **** const uint8 CYCODE SineWaveGen_wave2[SineWaveGen_WAVE2_LENGTH] = { 128u,132u,138u,143u,148u,152u,15
  22:Generated_Source\PSoC5/SineWaveGen.c **** 
  23:Generated_Source\PSoC5/SineWaveGen.c **** static uint8  SineWaveGen_Wave1Chan;
  24:Generated_Source\PSoC5/SineWaveGen.c **** static uint8  SineWaveGen_Wave2Chan;
  25:Generated_Source\PSoC5/SineWaveGen.c **** static uint8  SineWaveGen_Wave1TD;
  26:Generated_Source\PSoC5/SineWaveGen.c **** static uint8  SineWaveGen_Wave2TD;
  27:Generated_Source\PSoC5/SineWaveGen.c **** 
  28:Generated_Source\PSoC5/SineWaveGen.c **** 
  29:Generated_Source\PSoC5/SineWaveGen.c **** /*******************************************************************************
  30:Generated_Source\PSoC5/SineWaveGen.c **** * Function Name: SineWaveGen_Init
  31:Generated_Source\PSoC5/SineWaveGen.c **** ********************************************************************************
  32:Generated_Source\PSoC5/SineWaveGen.c **** *
  33:Generated_Source\PSoC5/SineWaveGen.c **** * Summary:
ARM GAS  C:\Users\AARONW~1\AppData\Local\Temp\ccUNoqBC.s 			page 6


  34:Generated_Source\PSoC5/SineWaveGen.c **** *  Initializes component with parameters set in the customizer.
  35:Generated_Source\PSoC5/SineWaveGen.c **** *
  36:Generated_Source\PSoC5/SineWaveGen.c **** * Parameters:  
  37:Generated_Source\PSoC5/SineWaveGen.c **** *  None
  38:Generated_Source\PSoC5/SineWaveGen.c **** *
  39:Generated_Source\PSoC5/SineWaveGen.c **** * Return: 
  40:Generated_Source\PSoC5/SineWaveGen.c **** *  None
  41:Generated_Source\PSoC5/SineWaveGen.c **** *
  42:Generated_Source\PSoC5/SineWaveGen.c **** *******************************************************************************/
  43:Generated_Source\PSoC5/SineWaveGen.c **** void SineWaveGen_Init(void) 
  44:Generated_Source\PSoC5/SineWaveGen.c **** {
 253              		.loc 1 44 0
 254              		.cfi_startproc
 255              		@ args = 0, pretend = 0, frame = 0
 256              		@ frame_needed = 1, uses_anonymous_args = 0
 257 0000 80B5     		push	{r7, lr}
 258              		.cfi_def_cfa_offset 8
 259              		.cfi_offset 7, -8
 260              		.cfi_offset 14, -4
 261 0002 00AF     		add	r7, sp, #0
 262              		.cfi_def_cfa_register 7
  45:Generated_Source\PSoC5/SineWaveGen.c **** 	SineWaveGen_VDAC8_Init();
 263              		.loc 1 45 0
 264 0004 FFF7FEFF 		bl	SineWaveGen_VDAC8_Init
  46:Generated_Source\PSoC5/SineWaveGen.c **** 	SineWaveGen_VDAC8_SetSpeed(SineWaveGen_HIGHSPEED);
 265              		.loc 1 46 0
 266 0008 0220     		movs	r0, #2
 267 000a FFF7FEFF 		bl	SineWaveGen_VDAC8_SetSpeed
  47:Generated_Source\PSoC5/SineWaveGen.c **** 	SineWaveGen_VDAC8_SetRange(SineWaveGen_DAC_RANGE);
 268              		.loc 1 47 0
 269 000e 0020     		movs	r0, #0
 270 0010 FFF7FEFF 		bl	SineWaveGen_VDAC8_SetRange
  48:Generated_Source\PSoC5/SineWaveGen.c **** 
  49:Generated_Source\PSoC5/SineWaveGen.c **** 	#if(SineWaveGen_DAC_MODE == SineWaveGen_CURRENT_MODE)
  50:Generated_Source\PSoC5/SineWaveGen.c **** 		SineWaveGen_IDAC8_SetPolarity(SineWaveGen_DAC_POL);
  51:Generated_Source\PSoC5/SineWaveGen.c **** 	#endif /* SineWaveGen_DAC_MODE == SineWaveGen_CURRENT_MODE */
  52:Generated_Source\PSoC5/SineWaveGen.c **** 
  53:Generated_Source\PSoC5/SineWaveGen.c **** 	#if(SineWaveGen_OUT_MODE == SineWaveGen_BUFFER_MODE)
  54:Generated_Source\PSoC5/SineWaveGen.c **** 	   SineWaveGen_BuffAmp_Init();
 271              		.loc 1 54 0
 272 0014 FFF7FEFF 		bl	SineWaveGen_BuffAmp_Init
  55:Generated_Source\PSoC5/SineWaveGen.c **** 	#endif /* SineWaveGen_OUT_MODE == SineWaveGen_BUFFER_MODE */
  56:Generated_Source\PSoC5/SineWaveGen.c **** 
  57:Generated_Source\PSoC5/SineWaveGen.c **** 	/* Get the TD Number for the DMA channel 1 and 2   */
  58:Generated_Source\PSoC5/SineWaveGen.c **** 	SineWaveGen_Wave1TD = CyDmaTdAllocate();
 273              		.loc 1 58 0
 274 0018 FFF7FEFF 		bl	CyDmaTdAllocate
 275 001c 0346     		mov	r3, r0
 276 001e 1A46     		mov	r2, r3
 277 0020 084B     		ldr	r3, .L2
 278 0022 1A70     		strb	r2, [r3]
  59:Generated_Source\PSoC5/SineWaveGen.c **** 	SineWaveGen_Wave2TD = CyDmaTdAllocate();
 279              		.loc 1 59 0
 280 0024 FFF7FEFF 		bl	CyDmaTdAllocate
 281 0028 0346     		mov	r3, r0
 282 002a 1A46     		mov	r2, r3
 283 002c 064B     		ldr	r3, .L2+4
ARM GAS  C:\Users\AARONW~1\AppData\Local\Temp\ccUNoqBC.s 			page 7


 284 002e 1A70     		strb	r2, [r3]
  60:Generated_Source\PSoC5/SineWaveGen.c **** 	
  61:Generated_Source\PSoC5/SineWaveGen.c **** 	/* Initialize waveform pointers  */
  62:Generated_Source\PSoC5/SineWaveGen.c **** 	SineWaveGen_Wave1Setup(SineWaveGen_wave1, SineWaveGen_WAVE1_LENGTH) ;
 285              		.loc 1 62 0
 286 0030 0648     		ldr	r0, .L2+8
 287 0032 6421     		movs	r1, #100
 288 0034 FFF7FEFF 		bl	SineWaveGen_Wave1Setup
  63:Generated_Source\PSoC5/SineWaveGen.c **** 	SineWaveGen_Wave2Setup(SineWaveGen_wave2, SineWaveGen_WAVE2_LENGTH) ;
 289              		.loc 1 63 0
 290 0038 0548     		ldr	r0, .L2+12
 291 003a 6421     		movs	r1, #100
 292 003c FFF7FEFF 		bl	SineWaveGen_Wave2Setup
  64:Generated_Source\PSoC5/SineWaveGen.c **** 	
  65:Generated_Source\PSoC5/SineWaveGen.c **** 	/* Initialize the internal clock if one present  */
  66:Generated_Source\PSoC5/SineWaveGen.c **** 	#if defined(SineWaveGen_DacClk_PHASE)
  67:Generated_Source\PSoC5/SineWaveGen.c **** 	   SineWaveGen_DacClk_SetPhase(SineWaveGen_CLK_PHASE_0nS);
  68:Generated_Source\PSoC5/SineWaveGen.c **** 	#endif /* defined(SineWaveGen_DacClk_PHASE) */
  69:Generated_Source\PSoC5/SineWaveGen.c **** }
 293              		.loc 1 69 0
 294 0040 80BD     		pop	{r7, pc}
 295              	.L3:
 296 0042 00BF     		.align	2
 297              	.L2:
 298 0044 03000000 		.word	SineWaveGen_Wave1TD
 299 0048 04000000 		.word	SineWaveGen_Wave2TD
 300 004c 00000000 		.word	SineWaveGen_wave1
 301 0050 00000000 		.word	SineWaveGen_wave2
 302              		.cfi_endproc
 303              	.LFE0:
 304              		.size	SineWaveGen_Init, .-SineWaveGen_Init
 305              		.section	.text.SineWaveGen_Enable,"ax",%progbits
 306              		.align	2
 307              		.global	SineWaveGen_Enable
 308              		.thumb
 309              		.thumb_func
 310              		.type	SineWaveGen_Enable, %function
 311              	SineWaveGen_Enable:
 312              	.LFB1:
  70:Generated_Source\PSoC5/SineWaveGen.c **** 
  71:Generated_Source\PSoC5/SineWaveGen.c **** 
  72:Generated_Source\PSoC5/SineWaveGen.c **** /*******************************************************************************
  73:Generated_Source\PSoC5/SineWaveGen.c **** * Function Name: SineWaveGen_Enable
  74:Generated_Source\PSoC5/SineWaveGen.c **** ********************************************************************************
  75:Generated_Source\PSoC5/SineWaveGen.c **** *  
  76:Generated_Source\PSoC5/SineWaveGen.c **** * Summary: 
  77:Generated_Source\PSoC5/SineWaveGen.c **** *  Enables the DAC block and DMA operation.
  78:Generated_Source\PSoC5/SineWaveGen.c **** *
  79:Generated_Source\PSoC5/SineWaveGen.c **** * Parameters:  
  80:Generated_Source\PSoC5/SineWaveGen.c **** *  None
  81:Generated_Source\PSoC5/SineWaveGen.c **** *
  82:Generated_Source\PSoC5/SineWaveGen.c **** * Return: 
  83:Generated_Source\PSoC5/SineWaveGen.c **** *  None
  84:Generated_Source\PSoC5/SineWaveGen.c **** *
  85:Generated_Source\PSoC5/SineWaveGen.c **** *******************************************************************************/
  86:Generated_Source\PSoC5/SineWaveGen.c **** void SineWaveGen_Enable(void) 
  87:Generated_Source\PSoC5/SineWaveGen.c **** {
ARM GAS  C:\Users\AARONW~1\AppData\Local\Temp\ccUNoqBC.s 			page 8


 313              		.loc 1 87 0
 314              		.cfi_startproc
 315              		@ args = 0, pretend = 0, frame = 0
 316              		@ frame_needed = 1, uses_anonymous_args = 0
 317 0000 80B5     		push	{r7, lr}
 318              		.cfi_def_cfa_offset 8
 319              		.cfi_offset 7, -8
 320              		.cfi_offset 14, -4
 321 0002 00AF     		add	r7, sp, #0
 322              		.cfi_def_cfa_register 7
  88:Generated_Source\PSoC5/SineWaveGen.c **** 	SineWaveGen_VDAC8_Enable();
 323              		.loc 1 88 0
 324 0004 FFF7FEFF 		bl	SineWaveGen_VDAC8_Enable
  89:Generated_Source\PSoC5/SineWaveGen.c **** 
  90:Generated_Source\PSoC5/SineWaveGen.c **** 	#if(SineWaveGen_OUT_MODE == SineWaveGen_BUFFER_MODE)
  91:Generated_Source\PSoC5/SineWaveGen.c **** 	   SineWaveGen_BuffAmp_Enable();
 325              		.loc 1 91 0
 326 0008 FFF7FEFF 		bl	SineWaveGen_BuffAmp_Enable
  92:Generated_Source\PSoC5/SineWaveGen.c **** 	#endif /* SineWaveGen_OUT_MODE == SineWaveGen_BUFFER_MODE */
  93:Generated_Source\PSoC5/SineWaveGen.c **** 
  94:Generated_Source\PSoC5/SineWaveGen.c **** 	/* 
  95:Generated_Source\PSoC5/SineWaveGen.c **** 	* Enable the channel. It is configured to remember the TD value so that
  96:Generated_Source\PSoC5/SineWaveGen.c **** 	* it can be restored from the place where it has been stopped.
  97:Generated_Source\PSoC5/SineWaveGen.c **** 	*/
  98:Generated_Source\PSoC5/SineWaveGen.c **** 	(void)CyDmaChEnable(SineWaveGen_Wave1Chan, 1u);
 327              		.loc 1 98 0
 328 000c 074B     		ldr	r3, .L5
 329 000e 1B78     		ldrb	r3, [r3]	@ zero_extendqisi2
 330 0010 1846     		mov	r0, r3
 331 0012 0121     		movs	r1, #1
 332 0014 FFF7FEFF 		bl	CyDmaChEnable
  99:Generated_Source\PSoC5/SineWaveGen.c **** 	(void)CyDmaChEnable(SineWaveGen_Wave2Chan, 1u);
 333              		.loc 1 99 0
 334 0018 054B     		ldr	r3, .L5+4
 335 001a 1B78     		ldrb	r3, [r3]	@ zero_extendqisi2
 336 001c 1846     		mov	r0, r3
 337 001e 0121     		movs	r1, #1
 338 0020 FFF7FEFF 		bl	CyDmaChEnable
 100:Generated_Source\PSoC5/SineWaveGen.c **** 	
 101:Generated_Source\PSoC5/SineWaveGen.c **** 	/* set the initial value */
 102:Generated_Source\PSoC5/SineWaveGen.c **** 	SineWaveGen_SetValue(0u);
 339              		.loc 1 102 0
 340 0024 0020     		movs	r0, #0
 341 0026 FFF7FEFF 		bl	SineWaveGen_VDAC8_SetValue
 103:Generated_Source\PSoC5/SineWaveGen.c **** 	
 104:Generated_Source\PSoC5/SineWaveGen.c **** 	#if(SineWaveGen_CLOCK_SRC == SineWaveGen_CLOCK_INT)  	
 105:Generated_Source\PSoC5/SineWaveGen.c **** 	   SineWaveGen_DacClk_Start();
 106:Generated_Source\PSoC5/SineWaveGen.c **** 	#endif /* SineWaveGen_CLOCK_SRC == SineWaveGen_CLOCK_INT */
 107:Generated_Source\PSoC5/SineWaveGen.c **** }
 342              		.loc 1 107 0
 343 002a 80BD     		pop	{r7, pc}
 344              	.L6:
 345              		.align	2
 346              	.L5:
 347 002c 01000000 		.word	SineWaveGen_Wave1Chan
 348 0030 02000000 		.word	SineWaveGen_Wave2Chan
 349              		.cfi_endproc
ARM GAS  C:\Users\AARONW~1\AppData\Local\Temp\ccUNoqBC.s 			page 9


 350              	.LFE1:
 351              		.size	SineWaveGen_Enable, .-SineWaveGen_Enable
 352              		.section	.text.SineWaveGen_Start,"ax",%progbits
 353              		.align	2
 354              		.global	SineWaveGen_Start
 355              		.thumb
 356              		.thumb_func
 357              		.type	SineWaveGen_Start, %function
 358              	SineWaveGen_Start:
 359              	.LFB2:
 108:Generated_Source\PSoC5/SineWaveGen.c **** 
 109:Generated_Source\PSoC5/SineWaveGen.c **** 
 110:Generated_Source\PSoC5/SineWaveGen.c **** /*******************************************************************************
 111:Generated_Source\PSoC5/SineWaveGen.c **** * Function Name: SineWaveGen_Start
 112:Generated_Source\PSoC5/SineWaveGen.c **** ********************************************************************************
 113:Generated_Source\PSoC5/SineWaveGen.c **** *
 114:Generated_Source\PSoC5/SineWaveGen.c **** * Summary:
 115:Generated_Source\PSoC5/SineWaveGen.c **** *  The start function initializes the voltage DAC with the default values, 
 116:Generated_Source\PSoC5/SineWaveGen.c **** *  and sets the power to the given level.  A power level of 0, is the same as 
 117:Generated_Source\PSoC5/SineWaveGen.c **** *  executing the stop function.
 118:Generated_Source\PSoC5/SineWaveGen.c **** *
 119:Generated_Source\PSoC5/SineWaveGen.c **** * Parameters:  
 120:Generated_Source\PSoC5/SineWaveGen.c **** *  None
 121:Generated_Source\PSoC5/SineWaveGen.c **** *
 122:Generated_Source\PSoC5/SineWaveGen.c **** * Return: 
 123:Generated_Source\PSoC5/SineWaveGen.c **** *  None
 124:Generated_Source\PSoC5/SineWaveGen.c **** *
 125:Generated_Source\PSoC5/SineWaveGen.c **** * Reentrant:
 126:Generated_Source\PSoC5/SineWaveGen.c **** *  No
 127:Generated_Source\PSoC5/SineWaveGen.c **** *
 128:Generated_Source\PSoC5/SineWaveGen.c **** *******************************************************************************/
 129:Generated_Source\PSoC5/SineWaveGen.c **** void SineWaveGen_Start(void) 
 130:Generated_Source\PSoC5/SineWaveGen.c **** {
 360              		.loc 1 130 0
 361              		.cfi_startproc
 362              		@ args = 0, pretend = 0, frame = 0
 363              		@ frame_needed = 1, uses_anonymous_args = 0
 364 0000 80B5     		push	{r7, lr}
 365              		.cfi_def_cfa_offset 8
 366              		.cfi_offset 7, -8
 367              		.cfi_offset 14, -4
 368 0002 00AF     		add	r7, sp, #0
 369              		.cfi_def_cfa_register 7
 131:Generated_Source\PSoC5/SineWaveGen.c **** 	/* If not Initialized then initialize all required hardware and software */
 132:Generated_Source\PSoC5/SineWaveGen.c **** 	if(SineWaveGen_initVar == 0u)
 370              		.loc 1 132 0
 371 0004 054B     		ldr	r3, .L9
 372 0006 1B78     		ldrb	r3, [r3]	@ zero_extendqisi2
 373 0008 002B     		cmp	r3, #0
 374 000a 04D1     		bne	.L8
 133:Generated_Source\PSoC5/SineWaveGen.c **** 	{
 134:Generated_Source\PSoC5/SineWaveGen.c **** 		SineWaveGen_Init();
 375              		.loc 1 134 0
 376 000c FFF7FEFF 		bl	SineWaveGen_Init
 135:Generated_Source\PSoC5/SineWaveGen.c **** 		SineWaveGen_initVar = 1u;
 377              		.loc 1 135 0
 378 0010 024B     		ldr	r3, .L9
ARM GAS  C:\Users\AARONW~1\AppData\Local\Temp\ccUNoqBC.s 			page 10


 379 0012 0122     		movs	r2, #1
 380 0014 1A70     		strb	r2, [r3]
 381              	.L8:
 136:Generated_Source\PSoC5/SineWaveGen.c **** 	}
 137:Generated_Source\PSoC5/SineWaveGen.c **** 	
 138:Generated_Source\PSoC5/SineWaveGen.c **** 	SineWaveGen_Enable();
 382              		.loc 1 138 0
 383 0016 FFF7FEFF 		bl	SineWaveGen_Enable
 139:Generated_Source\PSoC5/SineWaveGen.c **** }
 384              		.loc 1 139 0
 385 001a 80BD     		pop	{r7, pc}
 386              	.L10:
 387              		.align	2
 388              	.L9:
 389 001c 00000000 		.word	SineWaveGen_initVar
 390              		.cfi_endproc
 391              	.LFE2:
 392              		.size	SineWaveGen_Start, .-SineWaveGen_Start
 393              		.section	.text.SineWaveGen_StartEx,"ax",%progbits
 394              		.align	2
 395              		.global	SineWaveGen_StartEx
 396              		.thumb
 397              		.thumb_func
 398              		.type	SineWaveGen_StartEx, %function
 399              	SineWaveGen_StartEx:
 400              	.LFB3:
 140:Generated_Source\PSoC5/SineWaveGen.c **** 
 141:Generated_Source\PSoC5/SineWaveGen.c **** 
 142:Generated_Source\PSoC5/SineWaveGen.c **** /*******************************************************************************
 143:Generated_Source\PSoC5/SineWaveGen.c **** * Function Name: SineWaveGen_StartEx
 144:Generated_Source\PSoC5/SineWaveGen.c **** ********************************************************************************
 145:Generated_Source\PSoC5/SineWaveGen.c **** *
 146:Generated_Source\PSoC5/SineWaveGen.c **** * Summary:
 147:Generated_Source\PSoC5/SineWaveGen.c **** *  The StartEx function sets pointers and sizes for both waveforms
 148:Generated_Source\PSoC5/SineWaveGen.c **** *  and then starts the component.
 149:Generated_Source\PSoC5/SineWaveGen.c **** *
 150:Generated_Source\PSoC5/SineWaveGen.c **** * Parameters:  
 151:Generated_Source\PSoC5/SineWaveGen.c **** *   uint8 * wavePtr1:     Pointer to the waveform 1 array.
 152:Generated_Source\PSoC5/SineWaveGen.c **** *   uint16  sampleSize1:  The amount of samples in the waveform 1.
 153:Generated_Source\PSoC5/SineWaveGen.c **** *   uint8 * wavePtr2:     Pointer to the waveform 2 array.
 154:Generated_Source\PSoC5/SineWaveGen.c **** *   uint16  sampleSize2:  The amount of samples in the waveform 2.
 155:Generated_Source\PSoC5/SineWaveGen.c **** *
 156:Generated_Source\PSoC5/SineWaveGen.c **** * Return: 
 157:Generated_Source\PSoC5/SineWaveGen.c **** *  None
 158:Generated_Source\PSoC5/SineWaveGen.c **** *
 159:Generated_Source\PSoC5/SineWaveGen.c **** * Reentrant:
 160:Generated_Source\PSoC5/SineWaveGen.c **** *  No
 161:Generated_Source\PSoC5/SineWaveGen.c **** *
 162:Generated_Source\PSoC5/SineWaveGen.c **** *******************************************************************************/
 163:Generated_Source\PSoC5/SineWaveGen.c **** void SineWaveGen_StartEx(const uint8 * wavePtr1, uint16 sampleSize1, const uint8 * wavePtr2, uint16
 164:Generated_Source\PSoC5/SineWaveGen.c **** 
 165:Generated_Source\PSoC5/SineWaveGen.c **** {
 401              		.loc 1 165 0
 402              		.cfi_startproc
 403              		@ args = 0, pretend = 0, frame = 16
 404              		@ frame_needed = 1, uses_anonymous_args = 0
 405 0000 80B5     		push	{r7, lr}
ARM GAS  C:\Users\AARONW~1\AppData\Local\Temp\ccUNoqBC.s 			page 11


 406              		.cfi_def_cfa_offset 8
 407              		.cfi_offset 7, -8
 408              		.cfi_offset 14, -4
 409 0002 84B0     		sub	sp, sp, #16
 410              		.cfi_def_cfa_offset 24
 411 0004 00AF     		add	r7, sp, #0
 412              		.cfi_def_cfa_register 7
 413 0006 F860     		str	r0, [r7, #12]
 414 0008 7A60     		str	r2, [r7, #4]
 415 000a 1A46     		mov	r2, r3
 416 000c 0B46     		mov	r3, r1	@ movhi
 417 000e 7B81     		strh	r3, [r7, #10]	@ movhi
 418 0010 1346     		mov	r3, r2	@ movhi
 419 0012 3B81     		strh	r3, [r7, #8]	@ movhi
 166:Generated_Source\PSoC5/SineWaveGen.c **** 	SineWaveGen_Wave1Setup(wavePtr1, sampleSize1);
 420              		.loc 1 166 0
 421 0014 7B89     		ldrh	r3, [r7, #10]
 422 0016 F868     		ldr	r0, [r7, #12]
 423 0018 1946     		mov	r1, r3
 424 001a FFF7FEFF 		bl	SineWaveGen_Wave1Setup
 167:Generated_Source\PSoC5/SineWaveGen.c **** 	SineWaveGen_Wave2Setup(wavePtr2, sampleSize2);
 425              		.loc 1 167 0
 426 001e 3B89     		ldrh	r3, [r7, #8]
 427 0020 7868     		ldr	r0, [r7, #4]
 428 0022 1946     		mov	r1, r3
 429 0024 FFF7FEFF 		bl	SineWaveGen_Wave2Setup
 168:Generated_Source\PSoC5/SineWaveGen.c **** 	SineWaveGen_Start();
 430              		.loc 1 168 0
 431 0028 FFF7FEFF 		bl	SineWaveGen_Start
 169:Generated_Source\PSoC5/SineWaveGen.c **** }
 432              		.loc 1 169 0
 433 002c 1037     		adds	r7, r7, #16
 434              		.cfi_def_cfa_offset 8
 435 002e BD46     		mov	sp, r7
 436              		.cfi_def_cfa_register 13
 437              		@ sp needed
 438 0030 80BD     		pop	{r7, pc}
 439              		.cfi_endproc
 440              	.LFE3:
 441              		.size	SineWaveGen_StartEx, .-SineWaveGen_StartEx
 442 0032 00BF     		.section	.text.SineWaveGen_Stop,"ax",%progbits
 443              		.align	2
 444              		.global	SineWaveGen_Stop
 445              		.thumb
 446              		.thumb_func
 447              		.type	SineWaveGen_Stop, %function
 448              	SineWaveGen_Stop:
 449              	.LFB4:
 170:Generated_Source\PSoC5/SineWaveGen.c **** 
 171:Generated_Source\PSoC5/SineWaveGen.c **** 
 172:Generated_Source\PSoC5/SineWaveGen.c **** /*******************************************************************************
 173:Generated_Source\PSoC5/SineWaveGen.c **** * Function Name: SineWaveGen_Stop
 174:Generated_Source\PSoC5/SineWaveGen.c **** ********************************************************************************
 175:Generated_Source\PSoC5/SineWaveGen.c **** *
 176:Generated_Source\PSoC5/SineWaveGen.c **** * Summary:
 177:Generated_Source\PSoC5/SineWaveGen.c **** *  Stops the clock (if internal), disables the DMA channels
 178:Generated_Source\PSoC5/SineWaveGen.c **** *  and powers down the DAC.
ARM GAS  C:\Users\AARONW~1\AppData\Local\Temp\ccUNoqBC.s 			page 12


 179:Generated_Source\PSoC5/SineWaveGen.c **** *
 180:Generated_Source\PSoC5/SineWaveGen.c **** * Parameters:  
 181:Generated_Source\PSoC5/SineWaveGen.c **** *  None  
 182:Generated_Source\PSoC5/SineWaveGen.c **** *
 183:Generated_Source\PSoC5/SineWaveGen.c **** * Return: 
 184:Generated_Source\PSoC5/SineWaveGen.c **** *  None
 185:Generated_Source\PSoC5/SineWaveGen.c **** *
 186:Generated_Source\PSoC5/SineWaveGen.c **** *******************************************************************************/
 187:Generated_Source\PSoC5/SineWaveGen.c **** void SineWaveGen_Stop(void) 
 188:Generated_Source\PSoC5/SineWaveGen.c **** {
 450              		.loc 1 188 0
 451              		.cfi_startproc
 452              		@ args = 0, pretend = 0, frame = 0
 453              		@ frame_needed = 1, uses_anonymous_args = 0
 454 0000 80B5     		push	{r7, lr}
 455              		.cfi_def_cfa_offset 8
 456              		.cfi_offset 7, -8
 457              		.cfi_offset 14, -4
 458 0002 00AF     		add	r7, sp, #0
 459              		.cfi_def_cfa_register 7
 189:Generated_Source\PSoC5/SineWaveGen.c **** 	/* Turn off internal clock, if one present */
 190:Generated_Source\PSoC5/SineWaveGen.c **** 	#if(SineWaveGen_CLOCK_SRC == SineWaveGen_CLOCK_INT)  	
 191:Generated_Source\PSoC5/SineWaveGen.c **** 	   SineWaveGen_DacClk_Stop();
 192:Generated_Source\PSoC5/SineWaveGen.c **** 	#endif /* SineWaveGen_CLOCK_SRC == SineWaveGen_CLOCK_INT */
 193:Generated_Source\PSoC5/SineWaveGen.c **** 	
 194:Generated_Source\PSoC5/SineWaveGen.c **** 	/* Disble DMA channels */
 195:Generated_Source\PSoC5/SineWaveGen.c **** 	(void)CyDmaChDisable(SineWaveGen_Wave1Chan);
 460              		.loc 1 195 0
 461 0004 064B     		ldr	r3, .L13
 462 0006 1B78     		ldrb	r3, [r3]	@ zero_extendqisi2
 463 0008 1846     		mov	r0, r3
 464 000a FFF7FEFF 		bl	CyDmaChDisable
 196:Generated_Source\PSoC5/SineWaveGen.c **** 	(void)CyDmaChDisable(SineWaveGen_Wave2Chan);
 465              		.loc 1 196 0
 466 000e 054B     		ldr	r3, .L13+4
 467 0010 1B78     		ldrb	r3, [r3]	@ zero_extendqisi2
 468 0012 1846     		mov	r0, r3
 469 0014 FFF7FEFF 		bl	CyDmaChDisable
 197:Generated_Source\PSoC5/SineWaveGen.c **** 
 198:Generated_Source\PSoC5/SineWaveGen.c **** 	/* Disable power to DAC */
 199:Generated_Source\PSoC5/SineWaveGen.c **** 	SineWaveGen_VDAC8_Stop();
 470              		.loc 1 199 0
 471 0018 FFF7FEFF 		bl	SineWaveGen_VDAC8_Stop
 200:Generated_Source\PSoC5/SineWaveGen.c **** }
 472              		.loc 1 200 0
 473 001c 80BD     		pop	{r7, pc}
 474              	.L14:
 475 001e 00BF     		.align	2
 476              	.L13:
 477 0020 01000000 		.word	SineWaveGen_Wave1Chan
 478 0024 02000000 		.word	SineWaveGen_Wave2Chan
 479              		.cfi_endproc
 480              	.LFE4:
 481              		.size	SineWaveGen_Stop, .-SineWaveGen_Stop
 482              		.section	.text.SineWaveGen_Wave1Setup,"ax",%progbits
 483              		.align	2
 484              		.global	SineWaveGen_Wave1Setup
ARM GAS  C:\Users\AARONW~1\AppData\Local\Temp\ccUNoqBC.s 			page 13


 485              		.thumb
 486              		.thumb_func
 487              		.type	SineWaveGen_Wave1Setup, %function
 488              	SineWaveGen_Wave1Setup:
 489              	.LFB5:
 201:Generated_Source\PSoC5/SineWaveGen.c **** 
 202:Generated_Source\PSoC5/SineWaveGen.c **** 
 203:Generated_Source\PSoC5/SineWaveGen.c **** /*******************************************************************************
 204:Generated_Source\PSoC5/SineWaveGen.c **** * Function Name: SineWaveGen_Wave1Setup
 205:Generated_Source\PSoC5/SineWaveGen.c **** ********************************************************************************
 206:Generated_Source\PSoC5/SineWaveGen.c **** *
 207:Generated_Source\PSoC5/SineWaveGen.c **** * Summary:
 208:Generated_Source\PSoC5/SineWaveGen.c **** *  Sets pointer and size for waveform 1.                                    
 209:Generated_Source\PSoC5/SineWaveGen.c **** *
 210:Generated_Source\PSoC5/SineWaveGen.c **** * Parameters:  
 211:Generated_Source\PSoC5/SineWaveGen.c **** *  uint8 * WavePtr:     Pointer to the waveform array.
 212:Generated_Source\PSoC5/SineWaveGen.c **** *  uint16  SampleSize:  The amount of samples in the waveform.
 213:Generated_Source\PSoC5/SineWaveGen.c **** *
 214:Generated_Source\PSoC5/SineWaveGen.c **** * Return: 
 215:Generated_Source\PSoC5/SineWaveGen.c **** *  None 
 216:Generated_Source\PSoC5/SineWaveGen.c **** *
 217:Generated_Source\PSoC5/SineWaveGen.c **** *******************************************************************************/
 218:Generated_Source\PSoC5/SineWaveGen.c **** void SineWaveGen_Wave1Setup(const uint8 * wavePtr, uint16 sampleSize)
 219:Generated_Source\PSoC5/SineWaveGen.c **** 
 220:Generated_Source\PSoC5/SineWaveGen.c **** {
 490              		.loc 1 220 0
 491              		.cfi_startproc
 492              		@ args = 0, pretend = 0, frame = 8
 493              		@ frame_needed = 1, uses_anonymous_args = 0
 494 0000 80B5     		push	{r7, lr}
 495              		.cfi_def_cfa_offset 8
 496              		.cfi_offset 7, -8
 497              		.cfi_offset 14, -4
 498 0002 82B0     		sub	sp, sp, #8
 499              		.cfi_def_cfa_offset 16
 500 0004 00AF     		add	r7, sp, #0
 501              		.cfi_def_cfa_register 7
 502 0006 7860     		str	r0, [r7, #4]
 503 0008 0B46     		mov	r3, r1
 504 000a 7B80     		strh	r3, [r7, #2]	@ movhi
 221:Generated_Source\PSoC5/SineWaveGen.c **** 	#if (CY_PSOC3)
 222:Generated_Source\PSoC5/SineWaveGen.c **** 		uint16 memoryType; /* determining the source memory type */
 223:Generated_Source\PSoC5/SineWaveGen.c **** 		memoryType = (SineWaveGen_HI16FLASHPTR == HI16(wavePtr)) ? HI16(CYDEV_FLS_BASE) : HI16(CYDEV_SRAM
 224:Generated_Source\PSoC5/SineWaveGen.c **** 		
 225:Generated_Source\PSoC5/SineWaveGen.c **** 		SineWaveGen_Wave1Chan = SineWaveGen_Wave1_DMA_DmaInitialize(
 226:Generated_Source\PSoC5/SineWaveGen.c **** 		SineWaveGen_Wave1_DMA_BYTES_PER_BURST, SineWaveGen_Wave1_DMA_REQUEST_PER_BURST,
 227:Generated_Source\PSoC5/SineWaveGen.c **** 		memoryType, HI16(CYDEV_PERIPH_BASE));
 228:Generated_Source\PSoC5/SineWaveGen.c **** 	#else /* PSoC 5 */
 229:Generated_Source\PSoC5/SineWaveGen.c **** 		SineWaveGen_Wave1Chan = SineWaveGen_Wave1_DMA_DmaInitialize(
 230:Generated_Source\PSoC5/SineWaveGen.c **** 		SineWaveGen_Wave1_DMA_BYTES_PER_BURST, SineWaveGen_Wave1_DMA_REQUEST_PER_BURST,
 231:Generated_Source\PSoC5/SineWaveGen.c **** 		HI16(wavePtr), HI16(SineWaveGen_DAC8__D));
 505              		.loc 1 231 0
 506 000c 7B68     		ldr	r3, [r7, #4]
 507 000e 1B0C     		lsrs	r3, r3, #16
 229:Generated_Source\PSoC5/SineWaveGen.c **** 		SineWaveGen_Wave1_DMA_BYTES_PER_BURST, SineWaveGen_Wave1_DMA_REQUEST_PER_BURST,
 508              		.loc 1 229 0
 509 0010 9BB2     		uxth	r3, r3
ARM GAS  C:\Users\AARONW~1\AppData\Local\Temp\ccUNoqBC.s 			page 14


 510 0012 0120     		movs	r0, #1
 511 0014 0121     		movs	r1, #1
 512 0016 1A46     		mov	r2, r3
 513 0018 4FF48043 		mov	r3, #16384
 514 001c FFF7FEFF 		bl	SineWaveGen_Wave1_DMA_DmaInitialize
 515 0020 0346     		mov	r3, r0
 516 0022 1A46     		mov	r2, r3
 517 0024 104B     		ldr	r3, .L16
 518 0026 1A70     		strb	r2, [r3]
 232:Generated_Source\PSoC5/SineWaveGen.c **** 	#endif /* CY_PSOC3 */
 233:Generated_Source\PSoC5/SineWaveGen.c **** 	
 234:Generated_Source\PSoC5/SineWaveGen.c **** 	/*
 235:Generated_Source\PSoC5/SineWaveGen.c **** 	* TD is looping on itself. 
 236:Generated_Source\PSoC5/SineWaveGen.c ****     * Increment the source address, but not the destination address. 
 237:Generated_Source\PSoC5/SineWaveGen.c **** 	*/
 238:Generated_Source\PSoC5/SineWaveGen.c **** 	(void)CyDmaTdSetConfiguration(SineWaveGen_Wave1TD, sampleSize, SineWaveGen_Wave1TD, 
 519              		.loc 1 238 0
 520 0028 104B     		ldr	r3, .L16+4
 521 002a 1978     		ldrb	r1, [r3]	@ zero_extendqisi2
 522 002c 0F4B     		ldr	r3, .L16+4
 523 002e 1B78     		ldrb	r3, [r3]	@ zero_extendqisi2
 524 0030 7A88     		ldrh	r2, [r7, #2]
 525 0032 0846     		mov	r0, r1
 526 0034 1146     		mov	r1, r2
 527 0036 1A46     		mov	r2, r3
 528 0038 0123     		movs	r3, #1
 529 003a FFF7FEFF 		bl	CyDmaTdSetConfiguration
 239:Generated_Source\PSoC5/SineWaveGen.c ****                                     (uint8)CY_DMA_TD_INC_SRC_ADR | (uint8)SineWaveGen_Wave1_DMA__TD
 240:Generated_Source\PSoC5/SineWaveGen.c **** 	
 241:Generated_Source\PSoC5/SineWaveGen.c **** 	/* Set the TD source and destination address */
 242:Generated_Source\PSoC5/SineWaveGen.c **** 	(void)CyDmaTdSetAddress(SineWaveGen_Wave1TD, LO16((uint32)wavePtr), LO16(SineWaveGen_DAC8__D));
 530              		.loc 1 242 0
 531 003e 0B4B     		ldr	r3, .L16+4
 532 0040 1A78     		ldrb	r2, [r3]	@ zero_extendqisi2
 533 0042 7B68     		ldr	r3, [r7, #4]
 534 0044 9BB2     		uxth	r3, r3
 535 0046 1046     		mov	r0, r2
 536 0048 1946     		mov	r1, r3
 537 004a 45F68332 		movw	r2, #23427
 538 004e FFF7FEFF 		bl	CyDmaTdSetAddress
 243:Generated_Source\PSoC5/SineWaveGen.c **** 	
 244:Generated_Source\PSoC5/SineWaveGen.c **** 	/* Associate the TD with the channel */
 245:Generated_Source\PSoC5/SineWaveGen.c **** 	(void)CyDmaChSetInitialTd(SineWaveGen_Wave1Chan, SineWaveGen_Wave1TD);
 539              		.loc 1 245 0
 540 0052 054B     		ldr	r3, .L16
 541 0054 1A78     		ldrb	r2, [r3]	@ zero_extendqisi2
 542 0056 054B     		ldr	r3, .L16+4
 543 0058 1B78     		ldrb	r3, [r3]	@ zero_extendqisi2
 544 005a 1046     		mov	r0, r2
 545 005c 1946     		mov	r1, r3
 546 005e FFF7FEFF 		bl	CyDmaChSetInitialTd
 246:Generated_Source\PSoC5/SineWaveGen.c **** }
 547              		.loc 1 246 0
 548 0062 0837     		adds	r7, r7, #8
 549              		.cfi_def_cfa_offset 8
 550 0064 BD46     		mov	sp, r7
 551              		.cfi_def_cfa_register 13
ARM GAS  C:\Users\AARONW~1\AppData\Local\Temp\ccUNoqBC.s 			page 15


 552              		@ sp needed
 553 0066 80BD     		pop	{r7, pc}
 554              	.L17:
 555              		.align	2
 556              	.L16:
 557 0068 01000000 		.word	SineWaveGen_Wave1Chan
 558 006c 03000000 		.word	SineWaveGen_Wave1TD
 559              		.cfi_endproc
 560              	.LFE5:
 561              		.size	SineWaveGen_Wave1Setup, .-SineWaveGen_Wave1Setup
 562              		.section	.text.SineWaveGen_Wave2Setup,"ax",%progbits
 563              		.align	2
 564              		.global	SineWaveGen_Wave2Setup
 565              		.thumb
 566              		.thumb_func
 567              		.type	SineWaveGen_Wave2Setup, %function
 568              	SineWaveGen_Wave2Setup:
 569              	.LFB6:
 247:Generated_Source\PSoC5/SineWaveGen.c **** 
 248:Generated_Source\PSoC5/SineWaveGen.c **** 
 249:Generated_Source\PSoC5/SineWaveGen.c **** /*******************************************************************************
 250:Generated_Source\PSoC5/SineWaveGen.c **** * Function Name: SineWaveGen_Wave2Setup
 251:Generated_Source\PSoC5/SineWaveGen.c **** ********************************************************************************
 252:Generated_Source\PSoC5/SineWaveGen.c **** *
 253:Generated_Source\PSoC5/SineWaveGen.c **** * Summary:
 254:Generated_Source\PSoC5/SineWaveGen.c **** *  Sets pointer and size for waveform 2.                                    
 255:Generated_Source\PSoC5/SineWaveGen.c **** *
 256:Generated_Source\PSoC5/SineWaveGen.c **** * Parameters:  
 257:Generated_Source\PSoC5/SineWaveGen.c **** *  uint8 * WavePtr:     Pointer to the waveform array.
 258:Generated_Source\PSoC5/SineWaveGen.c **** *  uint16  SampleSize:  The amount of samples in the waveform.
 259:Generated_Source\PSoC5/SineWaveGen.c **** *
 260:Generated_Source\PSoC5/SineWaveGen.c **** * Return: 
 261:Generated_Source\PSoC5/SineWaveGen.c **** *  None
 262:Generated_Source\PSoC5/SineWaveGen.c **** *
 263:Generated_Source\PSoC5/SineWaveGen.c **** *******************************************************************************/
 264:Generated_Source\PSoC5/SineWaveGen.c **** void SineWaveGen_Wave2Setup(const uint8 * wavePtr, uint16 sampleSize)
 265:Generated_Source\PSoC5/SineWaveGen.c ****  
 266:Generated_Source\PSoC5/SineWaveGen.c **** {
 570              		.loc 1 266 0
 571              		.cfi_startproc
 572              		@ args = 0, pretend = 0, frame = 8
 573              		@ frame_needed = 1, uses_anonymous_args = 0
 574 0000 80B5     		push	{r7, lr}
 575              		.cfi_def_cfa_offset 8
 576              		.cfi_offset 7, -8
 577              		.cfi_offset 14, -4
 578 0002 82B0     		sub	sp, sp, #8
 579              		.cfi_def_cfa_offset 16
 580 0004 00AF     		add	r7, sp, #0
 581              		.cfi_def_cfa_register 7
 582 0006 7860     		str	r0, [r7, #4]
 583 0008 0B46     		mov	r3, r1
 584 000a 7B80     		strh	r3, [r7, #2]	@ movhi
 267:Generated_Source\PSoC5/SineWaveGen.c **** 	#if (CY_PSOC3)
 268:Generated_Source\PSoC5/SineWaveGen.c **** 		uint16 memoryType; /* determining the source memory type */
 269:Generated_Source\PSoC5/SineWaveGen.c **** 		memoryType = (SineWaveGen_HI16FLASHPTR == HI16(wavePtr)) ? HI16(CYDEV_FLS_BASE) : HI16(CYDEV_SRAM
 270:Generated_Source\PSoC5/SineWaveGen.c **** 			
ARM GAS  C:\Users\AARONW~1\AppData\Local\Temp\ccUNoqBC.s 			page 16


 271:Generated_Source\PSoC5/SineWaveGen.c **** 		SineWaveGen_Wave2Chan = SineWaveGen_Wave2_DMA_DmaInitialize(
 272:Generated_Source\PSoC5/SineWaveGen.c **** 		SineWaveGen_Wave2_DMA_BYTES_PER_BURST, SineWaveGen_Wave2_DMA_REQUEST_PER_BURST,
 273:Generated_Source\PSoC5/SineWaveGen.c **** 		memoryType, HI16(CYDEV_PERIPH_BASE));
 274:Generated_Source\PSoC5/SineWaveGen.c **** 	#else /* PSoC 5 */
 275:Generated_Source\PSoC5/SineWaveGen.c **** 		SineWaveGen_Wave2Chan = SineWaveGen_Wave2_DMA_DmaInitialize(
 276:Generated_Source\PSoC5/SineWaveGen.c **** 		SineWaveGen_Wave2_DMA_BYTES_PER_BURST, SineWaveGen_Wave2_DMA_REQUEST_PER_BURST,
 277:Generated_Source\PSoC5/SineWaveGen.c **** 		HI16(wavePtr), HI16(SineWaveGen_DAC8__D));
 585              		.loc 1 277 0
 586 000c 7B68     		ldr	r3, [r7, #4]
 587 000e 1B0C     		lsrs	r3, r3, #16
 275:Generated_Source\PSoC5/SineWaveGen.c **** 		SineWaveGen_Wave2_DMA_BYTES_PER_BURST, SineWaveGen_Wave2_DMA_REQUEST_PER_BURST,
 588              		.loc 1 275 0
 589 0010 9BB2     		uxth	r3, r3
 590 0012 0120     		movs	r0, #1
 591 0014 0121     		movs	r1, #1
 592 0016 1A46     		mov	r2, r3
 593 0018 4FF48043 		mov	r3, #16384
 594 001c FFF7FEFF 		bl	SineWaveGen_Wave2_DMA_DmaInitialize
 595 0020 0346     		mov	r3, r0
 596 0022 1A46     		mov	r2, r3
 597 0024 104B     		ldr	r3, .L19
 598 0026 1A70     		strb	r2, [r3]
 278:Generated_Source\PSoC5/SineWaveGen.c **** 	#endif /* CY_PSOC3 */
 279:Generated_Source\PSoC5/SineWaveGen.c **** 	
 280:Generated_Source\PSoC5/SineWaveGen.c **** 	/*
 281:Generated_Source\PSoC5/SineWaveGen.c **** 	* TD is looping on itself. 
 282:Generated_Source\PSoC5/SineWaveGen.c **** 	* Increment the source address, but not the destination address. 
 283:Generated_Source\PSoC5/SineWaveGen.c **** 	*/
 284:Generated_Source\PSoC5/SineWaveGen.c **** 	(void)CyDmaTdSetConfiguration(SineWaveGen_Wave2TD, sampleSize, SineWaveGen_Wave2TD, 
 599              		.loc 1 284 0
 600 0028 104B     		ldr	r3, .L19+4
 601 002a 1978     		ldrb	r1, [r3]	@ zero_extendqisi2
 602 002c 0F4B     		ldr	r3, .L19+4
 603 002e 1B78     		ldrb	r3, [r3]	@ zero_extendqisi2
 604 0030 7A88     		ldrh	r2, [r7, #2]
 605 0032 0846     		mov	r0, r1
 606 0034 1146     		mov	r1, r2
 607 0036 1A46     		mov	r2, r3
 608 0038 0123     		movs	r3, #1
 609 003a FFF7FEFF 		bl	CyDmaTdSetConfiguration
 285:Generated_Source\PSoC5/SineWaveGen.c ****                                     (uint8)CY_DMA_TD_INC_SRC_ADR | (uint8)SineWaveGen_Wave2_DMA__TD
 286:Generated_Source\PSoC5/SineWaveGen.c **** 	
 287:Generated_Source\PSoC5/SineWaveGen.c **** 	/* Set the TD source and destination address */
 288:Generated_Source\PSoC5/SineWaveGen.c **** 	(void)CyDmaTdSetAddress(SineWaveGen_Wave2TD, LO16((uint32)wavePtr), LO16(SineWaveGen_DAC8__D));
 610              		.loc 1 288 0
 611 003e 0B4B     		ldr	r3, .L19+4
 612 0040 1A78     		ldrb	r2, [r3]	@ zero_extendqisi2
 613 0042 7B68     		ldr	r3, [r7, #4]
 614 0044 9BB2     		uxth	r3, r3
 615 0046 1046     		mov	r0, r2
 616 0048 1946     		mov	r1, r3
 617 004a 45F68332 		movw	r2, #23427
 618 004e FFF7FEFF 		bl	CyDmaTdSetAddress
 289:Generated_Source\PSoC5/SineWaveGen.c **** 	
 290:Generated_Source\PSoC5/SineWaveGen.c **** 	/* Associate the TD with the channel */
 291:Generated_Source\PSoC5/SineWaveGen.c **** 	(void)CyDmaChSetInitialTd(SineWaveGen_Wave2Chan, SineWaveGen_Wave2TD);
 619              		.loc 1 291 0
ARM GAS  C:\Users\AARONW~1\AppData\Local\Temp\ccUNoqBC.s 			page 17


 620 0052 054B     		ldr	r3, .L19
 621 0054 1A78     		ldrb	r2, [r3]	@ zero_extendqisi2
 622 0056 054B     		ldr	r3, .L19+4
 623 0058 1B78     		ldrb	r3, [r3]	@ zero_extendqisi2
 624 005a 1046     		mov	r0, r2
 625 005c 1946     		mov	r1, r3
 626 005e FFF7FEFF 		bl	CyDmaChSetInitialTd
 292:Generated_Source\PSoC5/SineWaveGen.c **** }
 627              		.loc 1 292 0
 628 0062 0837     		adds	r7, r7, #8
 629              		.cfi_def_cfa_offset 8
 630 0064 BD46     		mov	sp, r7
 631              		.cfi_def_cfa_register 13
 632              		@ sp needed
 633 0066 80BD     		pop	{r7, pc}
 634              	.L20:
 635              		.align	2
 636              	.L19:
 637 0068 02000000 		.word	SineWaveGen_Wave2Chan
 638 006c 04000000 		.word	SineWaveGen_Wave2TD
 639              		.cfi_endproc
 640              	.LFE6:
 641              		.size	SineWaveGen_Wave2Setup, .-SineWaveGen_Wave2Setup
 642              		.text
 643              	.Letext0:
 644              		.file 2 "Generated_Source\\PSoC5\\cytypes.h"