ARM GAS  C:\Users\AARONW~1\AppData\Local\Temp\cctBzMoa.s 			page 1


   1              		.cpu cortex-m0
   2              		.fpu softvfp
   3              		.eabi_attribute 20, 1
   4              		.eabi_attribute 21, 1
   5              		.eabi_attribute 23, 3
   6              		.eabi_attribute 24, 1
   7              		.eabi_attribute 25, 1
   8              		.eabi_attribute 26, 1
   9              		.eabi_attribute 30, 6
  10              		.eabi_attribute 34, 0
  11              		.eabi_attribute 18, 4
  12              		.code	16
  13              		.file	"CountSelector.c"
  14              		.text
  15              	.Ltext0:
  16              		.cfi_sections	.debug_frame
  17              		.section	.text.CountSelector_SetDriveMode,"ax",%progbits
  18              		.align	2
  19              		.global	CountSelector_SetDriveMode
  20              		.code	16
  21              		.thumb_func
  22              		.type	CountSelector_SetDriveMode, %function
  23              	CountSelector_SetDriveMode:
  24              	.LFB0:
  25              		.file 1 "Generated_Source\\PSoC4\\CountSelector.c"
   1:Generated_Source\PSoC4/CountSelector.c **** /*******************************************************************************
   2:Generated_Source\PSoC4/CountSelector.c **** * File Name: CountSelector.c  
   3:Generated_Source\PSoC4/CountSelector.c **** * Version 2.20
   4:Generated_Source\PSoC4/CountSelector.c **** *
   5:Generated_Source\PSoC4/CountSelector.c **** * Description:
   6:Generated_Source\PSoC4/CountSelector.c **** *  This file contains API to enable firmware control of a Pins component.
   7:Generated_Source\PSoC4/CountSelector.c **** *
   8:Generated_Source\PSoC4/CountSelector.c **** ********************************************************************************
   9:Generated_Source\PSoC4/CountSelector.c **** * Copyright 2008-2015, Cypress Semiconductor Corporation.  All rights reserved.
  10:Generated_Source\PSoC4/CountSelector.c **** * You may use this file only in accordance with the license, terms, conditions, 
  11:Generated_Source\PSoC4/CountSelector.c **** * disclaimers, and limitations in the end user license agreement accompanying 
  12:Generated_Source\PSoC4/CountSelector.c **** * the software package with which this file was provided.
  13:Generated_Source\PSoC4/CountSelector.c **** *******************************************************************************/
  14:Generated_Source\PSoC4/CountSelector.c **** 
  15:Generated_Source\PSoC4/CountSelector.c **** #include "cytypes.h"
  16:Generated_Source\PSoC4/CountSelector.c **** #include "CountSelector.h"
  17:Generated_Source\PSoC4/CountSelector.c **** 
  18:Generated_Source\PSoC4/CountSelector.c **** 
  19:Generated_Source\PSoC4/CountSelector.c **** #if defined(CountSelector__PC)
  20:Generated_Source\PSoC4/CountSelector.c ****     #define CountSelector_SetP4PinDriveMode(shift, mode)  \
  21:Generated_Source\PSoC4/CountSelector.c ****     do { \
  22:Generated_Source\PSoC4/CountSelector.c ****         CountSelector_PC =   (CountSelector_PC & \
  23:Generated_Source\PSoC4/CountSelector.c ****                                 (uint32)(~(uint32)(CountSelector_DRIVE_MODE_IND_MASK << \
  24:Generated_Source\PSoC4/CountSelector.c ****                                 (CountSelector_DRIVE_MODE_BITS * (shift))))) | \
  25:Generated_Source\PSoC4/CountSelector.c ****                                 (uint32)((uint32)(mode) << \
  26:Generated_Source\PSoC4/CountSelector.c ****                                 (CountSelector_DRIVE_MODE_BITS * (shift))); \
  27:Generated_Source\PSoC4/CountSelector.c ****     } while (0)
  28:Generated_Source\PSoC4/CountSelector.c **** #else
  29:Generated_Source\PSoC4/CountSelector.c ****     #if (CY_PSOC4_4200L)
  30:Generated_Source\PSoC4/CountSelector.c ****         #define CountSelector_SetP4PinDriveMode(shift, mode)  \
  31:Generated_Source\PSoC4/CountSelector.c ****         do { \
  32:Generated_Source\PSoC4/CountSelector.c ****             CountSelector_USBIO_CTRL_REG = (CountSelector_USBIO_CTRL_REG & \
ARM GAS  C:\Users\AARONW~1\AppData\Local\Temp\cctBzMoa.s 			page 2


  33:Generated_Source\PSoC4/CountSelector.c ****                                     (uint32)(~(uint32)(CountSelector_DRIVE_MODE_IND_MASK << \
  34:Generated_Source\PSoC4/CountSelector.c ****                                     (CountSelector_DRIVE_MODE_BITS * (shift))))) | \
  35:Generated_Source\PSoC4/CountSelector.c ****                                     (uint32)((uint32)(mode) << \
  36:Generated_Source\PSoC4/CountSelector.c ****                                     (CountSelector_DRIVE_MODE_BITS * (shift))); \
  37:Generated_Source\PSoC4/CountSelector.c ****         } while (0)
  38:Generated_Source\PSoC4/CountSelector.c ****     #endif
  39:Generated_Source\PSoC4/CountSelector.c **** #endif
  40:Generated_Source\PSoC4/CountSelector.c ****   
  41:Generated_Source\PSoC4/CountSelector.c **** 
  42:Generated_Source\PSoC4/CountSelector.c **** #if defined(CountSelector__PC) || (CY_PSOC4_4200L) 
  43:Generated_Source\PSoC4/CountSelector.c ****     /*******************************************************************************
  44:Generated_Source\PSoC4/CountSelector.c ****     * Function Name: CountSelector_SetDriveMode
  45:Generated_Source\PSoC4/CountSelector.c ****     ****************************************************************************//**
  46:Generated_Source\PSoC4/CountSelector.c ****     *
  47:Generated_Source\PSoC4/CountSelector.c ****     * \brief Sets the drive mode for each of the Pins component's pins.
  48:Generated_Source\PSoC4/CountSelector.c ****     * 
  49:Generated_Source\PSoC4/CountSelector.c ****     * <b>Note</b> This affects all pins in the Pins component instance. Use the
  50:Generated_Source\PSoC4/CountSelector.c ****     * Per-Pin APIs if you wish to control individual pin's drive modes.
  51:Generated_Source\PSoC4/CountSelector.c ****     *
  52:Generated_Source\PSoC4/CountSelector.c ****     * <b>Note</b> USBIOs have limited drive functionality. Refer to the Drive Mode
  53:Generated_Source\PSoC4/CountSelector.c ****     * parameter for more information.
  54:Generated_Source\PSoC4/CountSelector.c ****     *
  55:Generated_Source\PSoC4/CountSelector.c ****     * \param mode
  56:Generated_Source\PSoC4/CountSelector.c ****     *  Mode for the selected signals. Valid options are documented in 
  57:Generated_Source\PSoC4/CountSelector.c ****     *  \ref driveMode.
  58:Generated_Source\PSoC4/CountSelector.c ****     *
  59:Generated_Source\PSoC4/CountSelector.c ****     * \return
  60:Generated_Source\PSoC4/CountSelector.c ****     *  None
  61:Generated_Source\PSoC4/CountSelector.c ****     *
  62:Generated_Source\PSoC4/CountSelector.c ****     * \sideeffect
  63:Generated_Source\PSoC4/CountSelector.c ****     *  If you use read-modify-write operations that are not atomic, the ISR can
  64:Generated_Source\PSoC4/CountSelector.c ****     *  cause corruption of this function. An ISR that interrupts this function 
  65:Generated_Source\PSoC4/CountSelector.c ****     *  and performs writes to the Pins component Drive Mode registers can cause 
  66:Generated_Source\PSoC4/CountSelector.c ****     *  corrupted port data. To avoid this issue, you should either use the Per-Pin
  67:Generated_Source\PSoC4/CountSelector.c ****     *  APIs (primary method) or disable interrupts around this function.
  68:Generated_Source\PSoC4/CountSelector.c ****     *
  69:Generated_Source\PSoC4/CountSelector.c ****     * \funcusage
  70:Generated_Source\PSoC4/CountSelector.c ****     *  \snippet CountSelector_SUT.c usage_CountSelector_SetDriveMode
  71:Generated_Source\PSoC4/CountSelector.c ****     *******************************************************************************/
  72:Generated_Source\PSoC4/CountSelector.c ****     void CountSelector_SetDriveMode(uint8 mode)
  73:Generated_Source\PSoC4/CountSelector.c ****     {
  26              		.loc 1 73 0
  27              		.cfi_startproc
  28 0000 80B5     		push	{r7, lr}
  29              		.cfi_def_cfa_offset 8
  30              		.cfi_offset 7, -8
  31              		.cfi_offset 14, -4
  32 0002 82B0     		sub	sp, sp, #8
  33              		.cfi_def_cfa_offset 16
  34 0004 00AF     		add	r7, sp, #0
  35              		.cfi_def_cfa_register 7
  36 0006 021C     		mov	r2, r0
  37 0008 FB1D     		add	r3, r7, #7
  38 000a 1A70     		strb	r2, [r3]
  74:Generated_Source\PSoC4/CountSelector.c **** 		CountSelector_SetP4PinDriveMode(CountSelector__0__SHIFT, mode);
  39              		.loc 1 74 0
  40 000c 0B4B     		ldr	r3, .L2
ARM GAS  C:\Users\AARONW~1\AppData\Local\Temp\cctBzMoa.s 			page 3


  41 000e 0B4A     		ldr	r2, .L2
  42 0010 1268     		ldr	r2, [r2]
  43 0012 0721     		mov	r1, #7
  44 0014 8A43     		bic	r2, r1
  45 0016 111C     		mov	r1, r2
  46 0018 FA1D     		add	r2, r7, #7
  47 001a 1278     		ldrb	r2, [r2]
  48 001c 0A43     		orr	r2, r1
  49 001e 1A60     		str	r2, [r3]
  75:Generated_Source\PSoC4/CountSelector.c **** 		CountSelector_SetP4PinDriveMode(CountSelector__1__SHIFT, mode);
  50              		.loc 1 75 0
  51 0020 064B     		ldr	r3, .L2
  52 0022 064A     		ldr	r2, .L2
  53 0024 1268     		ldr	r2, [r2]
  54 0026 3821     		mov	r1, #56
  55 0028 8A43     		bic	r2, r1
  56 002a 111C     		mov	r1, r2
  57 002c FA1D     		add	r2, r7, #7
  58 002e 1278     		ldrb	r2, [r2]
  59 0030 D200     		lsl	r2, r2, #3
  60 0032 0A43     		orr	r2, r1
  61 0034 1A60     		str	r2, [r3]
  76:Generated_Source\PSoC4/CountSelector.c ****     }
  62              		.loc 1 76 0
  63 0036 BD46     		mov	sp, r7
  64 0038 02B0     		add	sp, sp, #8
  65              		@ sp needed
  66 003a 80BD     		pop	{r7, pc}
  67              	.L3:
  68              		.align	2
  69              	.L2:
  70 003c 08000440 		.word	1074003976
  71              		.cfi_endproc
  72              	.LFE0:
  73              		.size	CountSelector_SetDriveMode, .-CountSelector_SetDriveMode
  74              		.section	.text.CountSelector_Write,"ax",%progbits
  75              		.align	2
  76              		.global	CountSelector_Write
  77              		.code	16
  78              		.thumb_func
  79              		.type	CountSelector_Write, %function
  80              	CountSelector_Write:
  81              	.LFB1:
  77:Generated_Source\PSoC4/CountSelector.c **** #endif
  78:Generated_Source\PSoC4/CountSelector.c **** 
  79:Generated_Source\PSoC4/CountSelector.c **** 
  80:Generated_Source\PSoC4/CountSelector.c **** /*******************************************************************************
  81:Generated_Source\PSoC4/CountSelector.c **** * Function Name: CountSelector_Write
  82:Generated_Source\PSoC4/CountSelector.c **** ****************************************************************************//**
  83:Generated_Source\PSoC4/CountSelector.c **** *
  84:Generated_Source\PSoC4/CountSelector.c **** * \brief Writes the value to the physical port (data output register), masking
  85:Generated_Source\PSoC4/CountSelector.c **** *  and shifting the bits appropriately. 
  86:Generated_Source\PSoC4/CountSelector.c **** *
  87:Generated_Source\PSoC4/CountSelector.c **** * The data output register controls the signal applied to the physical pin in 
  88:Generated_Source\PSoC4/CountSelector.c **** * conjunction with the drive mode parameter. This function avoids changing 
  89:Generated_Source\PSoC4/CountSelector.c **** * other bits in the port by using the appropriate method (read-modify-write or
  90:Generated_Source\PSoC4/CountSelector.c **** * bit banding).
ARM GAS  C:\Users\AARONW~1\AppData\Local\Temp\cctBzMoa.s 			page 4


  91:Generated_Source\PSoC4/CountSelector.c **** *
  92:Generated_Source\PSoC4/CountSelector.c **** * <b>Note</b> This function should not be used on a hardware digital output pin 
  93:Generated_Source\PSoC4/CountSelector.c **** * as it is driven by the hardware signal attached to it.
  94:Generated_Source\PSoC4/CountSelector.c **** *
  95:Generated_Source\PSoC4/CountSelector.c **** * \param value
  96:Generated_Source\PSoC4/CountSelector.c **** *  Value to write to the component instance.
  97:Generated_Source\PSoC4/CountSelector.c **** *
  98:Generated_Source\PSoC4/CountSelector.c **** * \return 
  99:Generated_Source\PSoC4/CountSelector.c **** *  None 
 100:Generated_Source\PSoC4/CountSelector.c **** *
 101:Generated_Source\PSoC4/CountSelector.c **** * \sideeffect
 102:Generated_Source\PSoC4/CountSelector.c **** *  If you use read-modify-write operations that are not atomic; the Interrupt 
 103:Generated_Source\PSoC4/CountSelector.c **** *  Service Routines (ISR) can cause corruption of this function. An ISR that 
 104:Generated_Source\PSoC4/CountSelector.c **** *  interrupts this function and performs writes to the Pins component data 
 105:Generated_Source\PSoC4/CountSelector.c **** *  register can cause corrupted port data. To avoid this issue, you should 
 106:Generated_Source\PSoC4/CountSelector.c **** *  either use the Per-Pin APIs (primary method) or disable interrupts around 
 107:Generated_Source\PSoC4/CountSelector.c **** *  this function.
 108:Generated_Source\PSoC4/CountSelector.c **** *
 109:Generated_Source\PSoC4/CountSelector.c **** * \funcusage
 110:Generated_Source\PSoC4/CountSelector.c **** *  \snippet CountSelector_SUT.c usage_CountSelector_Write
 111:Generated_Source\PSoC4/CountSelector.c **** *******************************************************************************/
 112:Generated_Source\PSoC4/CountSelector.c **** void CountSelector_Write(uint8 value)
 113:Generated_Source\PSoC4/CountSelector.c **** {
  82              		.loc 1 113 0
  83              		.cfi_startproc
  84 0000 80B5     		push	{r7, lr}
  85              		.cfi_def_cfa_offset 8
  86              		.cfi_offset 7, -8
  87              		.cfi_offset 14, -4
  88 0002 84B0     		sub	sp, sp, #16
  89              		.cfi_def_cfa_offset 24
  90 0004 00AF     		add	r7, sp, #0
  91              		.cfi_def_cfa_register 7
  92 0006 021C     		mov	r2, r0
  93 0008 FB1D     		add	r3, r7, #7
  94 000a 1A70     		strb	r2, [r3]
 114:Generated_Source\PSoC4/CountSelector.c ****     uint8 drVal = (uint8)(CountSelector_DR & (uint8)(~CountSelector_MASK));
  95              		.loc 1 114 0
  96 000c 0D4B     		ldr	r3, .L5
  97 000e 1B68     		ldr	r3, [r3]
  98 0010 DAB2     		uxtb	r2, r3
  99 0012 0F23     		mov	r3, #15
 100 0014 FB18     		add	r3, r7, r3
 101 0016 0321     		mov	r1, #3
 102 0018 8A43     		bic	r2, r1
 103 001a 1A70     		strb	r2, [r3]
 115:Generated_Source\PSoC4/CountSelector.c ****     drVal = (drVal | ((uint8)(value << CountSelector_SHIFT) & CountSelector_MASK));
 104              		.loc 1 115 0
 105 001c FB1D     		add	r3, r7, #7
 106 001e 1B78     		ldrb	r3, [r3]
 107 0020 0322     		mov	r2, #3
 108 0022 1340     		and	r3, r2
 109 0024 D9B2     		uxtb	r1, r3
 110 0026 0F23     		mov	r3, #15
 111 0028 FB18     		add	r3, r7, r3
 112 002a 0F22     		mov	r2, #15
 113 002c BA18     		add	r2, r7, r2
ARM GAS  C:\Users\AARONW~1\AppData\Local\Temp\cctBzMoa.s 			page 5


 114 002e 1278     		ldrb	r2, [r2]
 115 0030 0A43     		orr	r2, r1
 116 0032 1A70     		strb	r2, [r3]
 116:Generated_Source\PSoC4/CountSelector.c ****     CountSelector_DR = (uint32)drVal;
 117              		.loc 1 116 0
 118 0034 034B     		ldr	r3, .L5
 119 0036 0F22     		mov	r2, #15
 120 0038 BA18     		add	r2, r7, r2
 121 003a 1278     		ldrb	r2, [r2]
 122 003c 1A60     		str	r2, [r3]
 117:Generated_Source\PSoC4/CountSelector.c **** }
 123              		.loc 1 117 0
 124 003e BD46     		mov	sp, r7
 125 0040 04B0     		add	sp, sp, #16
 126              		@ sp needed
 127 0042 80BD     		pop	{r7, pc}
 128              	.L6:
 129              		.align	2
 130              	.L5:
 131 0044 00000440 		.word	1074003968
 132              		.cfi_endproc
 133              	.LFE1:
 134              		.size	CountSelector_Write, .-CountSelector_Write
 135              		.section	.text.CountSelector_Read,"ax",%progbits
 136              		.align	2
 137              		.global	CountSelector_Read
 138              		.code	16
 139              		.thumb_func
 140              		.type	CountSelector_Read, %function
 141              	CountSelector_Read:
 142              	.LFB2:
 118:Generated_Source\PSoC4/CountSelector.c **** 
 119:Generated_Source\PSoC4/CountSelector.c **** 
 120:Generated_Source\PSoC4/CountSelector.c **** /*******************************************************************************
 121:Generated_Source\PSoC4/CountSelector.c **** * Function Name: CountSelector_Read
 122:Generated_Source\PSoC4/CountSelector.c **** ****************************************************************************//**
 123:Generated_Source\PSoC4/CountSelector.c **** *
 124:Generated_Source\PSoC4/CountSelector.c **** * \brief Reads the associated physical port (pin status register) and masks 
 125:Generated_Source\PSoC4/CountSelector.c **** *  the required bits according to the width and bit position of the component
 126:Generated_Source\PSoC4/CountSelector.c **** *  instance. 
 127:Generated_Source\PSoC4/CountSelector.c **** *
 128:Generated_Source\PSoC4/CountSelector.c **** * The pin's status register returns the current logic level present on the 
 129:Generated_Source\PSoC4/CountSelector.c **** * physical pin.
 130:Generated_Source\PSoC4/CountSelector.c **** *
 131:Generated_Source\PSoC4/CountSelector.c **** * \return 
 132:Generated_Source\PSoC4/CountSelector.c **** *  The current value for the pins in the component as a right justified number.
 133:Generated_Source\PSoC4/CountSelector.c **** *
 134:Generated_Source\PSoC4/CountSelector.c **** * \funcusage
 135:Generated_Source\PSoC4/CountSelector.c **** *  \snippet CountSelector_SUT.c usage_CountSelector_Read  
 136:Generated_Source\PSoC4/CountSelector.c **** *******************************************************************************/
 137:Generated_Source\PSoC4/CountSelector.c **** uint8 CountSelector_Read(void)
 138:Generated_Source\PSoC4/CountSelector.c **** {
 143              		.loc 1 138 0
 144              		.cfi_startproc
 145 0000 80B5     		push	{r7, lr}
 146              		.cfi_def_cfa_offset 8
 147              		.cfi_offset 7, -8
ARM GAS  C:\Users\AARONW~1\AppData\Local\Temp\cctBzMoa.s 			page 6


 148              		.cfi_offset 14, -4
 149 0002 00AF     		add	r7, sp, #0
 150              		.cfi_def_cfa_register 7
 139:Generated_Source\PSoC4/CountSelector.c ****     return (uint8)((CountSelector_PS & CountSelector_MASK) >> CountSelector_SHIFT);
 151              		.loc 1 139 0
 152 0004 044B     		ldr	r3, .L9
 153 0006 1B68     		ldr	r3, [r3]
 154 0008 DBB2     		uxtb	r3, r3
 155 000a 0322     		mov	r2, #3
 156 000c 1340     		and	r3, r2
 157 000e DBB2     		uxtb	r3, r3
 140:Generated_Source\PSoC4/CountSelector.c **** }
 158              		.loc 1 140 0
 159 0010 181C     		mov	r0, r3
 160 0012 BD46     		mov	sp, r7
 161              		@ sp needed
 162 0014 80BD     		pop	{r7, pc}
 163              	.L10:
 164 0016 C046     		.align	2
 165              	.L9:
 166 0018 04000440 		.word	1074003972
 167              		.cfi_endproc
 168              	.LFE2:
 169              		.size	CountSelector_Read, .-CountSelector_Read
 170              		.section	.text.CountSelector_ReadDataReg,"ax",%progbits
 171              		.align	2
 172              		.global	CountSelector_ReadDataReg
 173              		.code	16
 174              		.thumb_func
 175              		.type	CountSelector_ReadDataReg, %function
 176              	CountSelector_ReadDataReg:
 177              	.LFB3:
 141:Generated_Source\PSoC4/CountSelector.c **** 
 142:Generated_Source\PSoC4/CountSelector.c **** 
 143:Generated_Source\PSoC4/CountSelector.c **** /*******************************************************************************
 144:Generated_Source\PSoC4/CountSelector.c **** * Function Name: CountSelector_ReadDataReg
 145:Generated_Source\PSoC4/CountSelector.c **** ****************************************************************************//**
 146:Generated_Source\PSoC4/CountSelector.c **** *
 147:Generated_Source\PSoC4/CountSelector.c **** * \brief Reads the associated physical port's data output register and masks 
 148:Generated_Source\PSoC4/CountSelector.c **** *  the correct bits according to the width and bit position of the component 
 149:Generated_Source\PSoC4/CountSelector.c **** *  instance. 
 150:Generated_Source\PSoC4/CountSelector.c **** *
 151:Generated_Source\PSoC4/CountSelector.c **** * The data output register controls the signal applied to the physical pin in 
 152:Generated_Source\PSoC4/CountSelector.c **** * conjunction with the drive mode parameter. This is not the same as the 
 153:Generated_Source\PSoC4/CountSelector.c **** * preferred CountSelector_Read() API because the 
 154:Generated_Source\PSoC4/CountSelector.c **** * CountSelector_ReadDataReg() reads the data register instead of the status 
 155:Generated_Source\PSoC4/CountSelector.c **** * register. For output pins this is a useful function to determine the value 
 156:Generated_Source\PSoC4/CountSelector.c **** * just written to the pin.
 157:Generated_Source\PSoC4/CountSelector.c **** *
 158:Generated_Source\PSoC4/CountSelector.c **** * \return 
 159:Generated_Source\PSoC4/CountSelector.c **** *  The current value of the data register masked and shifted into a right 
 160:Generated_Source\PSoC4/CountSelector.c **** *  justified number for the component instance.
 161:Generated_Source\PSoC4/CountSelector.c **** *
 162:Generated_Source\PSoC4/CountSelector.c **** * \funcusage
 163:Generated_Source\PSoC4/CountSelector.c **** *  \snippet CountSelector_SUT.c usage_CountSelector_ReadDataReg 
 164:Generated_Source\PSoC4/CountSelector.c **** *******************************************************************************/
 165:Generated_Source\PSoC4/CountSelector.c **** uint8 CountSelector_ReadDataReg(void)
ARM GAS  C:\Users\AARONW~1\AppData\Local\Temp\cctBzMoa.s 			page 7


 166:Generated_Source\PSoC4/CountSelector.c **** {
 178              		.loc 1 166 0
 179              		.cfi_startproc
 180 0000 80B5     		push	{r7, lr}
 181              		.cfi_def_cfa_offset 8
 182              		.cfi_offset 7, -8
 183              		.cfi_offset 14, -4
 184 0002 00AF     		add	r7, sp, #0
 185              		.cfi_def_cfa_register 7
 167:Generated_Source\PSoC4/CountSelector.c ****     return (uint8)((CountSelector_DR & CountSelector_MASK) >> CountSelector_SHIFT);
 186              		.loc 1 167 0
 187 0004 044B     		ldr	r3, .L13
 188 0006 1B68     		ldr	r3, [r3]
 189 0008 DBB2     		uxtb	r3, r3
 190 000a 0322     		mov	r2, #3
 191 000c 1340     		and	r3, r2
 192 000e DBB2     		uxtb	r3, r3
 168:Generated_Source\PSoC4/CountSelector.c **** }
 193              		.loc 1 168 0
 194 0010 181C     		mov	r0, r3
 195 0012 BD46     		mov	sp, r7
 196              		@ sp needed
 197 0014 80BD     		pop	{r7, pc}
 198              	.L14:
 199 0016 C046     		.align	2
 200              	.L13:
 201 0018 00000440 		.word	1074003968
 202              		.cfi_endproc
 203              	.LFE3:
 204              		.size	CountSelector_ReadDataReg, .-CountSelector_ReadDataReg
 205              		.section	.text.CountSelector_SetInterruptMode,"ax",%progbits
 206              		.align	2
 207              		.global	CountSelector_SetInterruptMode
 208              		.code	16
 209              		.thumb_func
 210              		.type	CountSelector_SetInterruptMode, %function
 211              	CountSelector_SetInterruptMode:
 212              	.LFB4:
 169:Generated_Source\PSoC4/CountSelector.c **** 
 170:Generated_Source\PSoC4/CountSelector.c **** 
 171:Generated_Source\PSoC4/CountSelector.c **** /*******************************************************************************
 172:Generated_Source\PSoC4/CountSelector.c **** * Function Name: CountSelector_SetInterruptMode
 173:Generated_Source\PSoC4/CountSelector.c **** ****************************************************************************//**
 174:Generated_Source\PSoC4/CountSelector.c **** *
 175:Generated_Source\PSoC4/CountSelector.c **** * \brief Configures the interrupt mode for each of the Pins component's
 176:Generated_Source\PSoC4/CountSelector.c **** *  pins. Alternatively you may set the interrupt mode for all the pins
 177:Generated_Source\PSoC4/CountSelector.c **** *  specified in the Pins component.
 178:Generated_Source\PSoC4/CountSelector.c **** *
 179:Generated_Source\PSoC4/CountSelector.c **** *  <b>Note</b> The interrupt is port-wide and therefore any enabled pin
 180:Generated_Source\PSoC4/CountSelector.c **** *  interrupt may trigger it.
 181:Generated_Source\PSoC4/CountSelector.c **** *
 182:Generated_Source\PSoC4/CountSelector.c **** * \param position
 183:Generated_Source\PSoC4/CountSelector.c **** *  The pin position as listed in the Pins component. You may OR these to be 
 184:Generated_Source\PSoC4/CountSelector.c **** *  able to configure the interrupt mode of multiple pins within a Pins 
 185:Generated_Source\PSoC4/CountSelector.c **** *  component. Or you may use CountSelector_INTR_ALL to configure the
 186:Generated_Source\PSoC4/CountSelector.c **** *  interrupt mode of all the pins in the Pins component.       
 187:Generated_Source\PSoC4/CountSelector.c **** *  - CountSelector_0_INTR       (First pin in the list)
ARM GAS  C:\Users\AARONW~1\AppData\Local\Temp\cctBzMoa.s 			page 8


 188:Generated_Source\PSoC4/CountSelector.c **** *  - CountSelector_1_INTR       (Second pin in the list)
 189:Generated_Source\PSoC4/CountSelector.c **** *  - ...
 190:Generated_Source\PSoC4/CountSelector.c **** *  - CountSelector_INTR_ALL     (All pins in Pins component)
 191:Generated_Source\PSoC4/CountSelector.c **** *
 192:Generated_Source\PSoC4/CountSelector.c **** * \param mode
 193:Generated_Source\PSoC4/CountSelector.c **** *  Interrupt mode for the selected pins. Valid options are documented in
 194:Generated_Source\PSoC4/CountSelector.c **** *  \ref intrMode.
 195:Generated_Source\PSoC4/CountSelector.c **** *
 196:Generated_Source\PSoC4/CountSelector.c **** * \return 
 197:Generated_Source\PSoC4/CountSelector.c **** *  None
 198:Generated_Source\PSoC4/CountSelector.c **** *  
 199:Generated_Source\PSoC4/CountSelector.c **** * \sideeffect
 200:Generated_Source\PSoC4/CountSelector.c **** *  It is recommended that the interrupt be disabled before calling this 
 201:Generated_Source\PSoC4/CountSelector.c **** *  function to avoid unintended interrupt requests. Note that the interrupt
 202:Generated_Source\PSoC4/CountSelector.c **** *  type is port wide, and therefore will trigger for any enabled pin on the 
 203:Generated_Source\PSoC4/CountSelector.c **** *  port.
 204:Generated_Source\PSoC4/CountSelector.c **** *
 205:Generated_Source\PSoC4/CountSelector.c **** * \funcusage
 206:Generated_Source\PSoC4/CountSelector.c **** *  \snippet CountSelector_SUT.c usage_CountSelector_SetInterruptMode
 207:Generated_Source\PSoC4/CountSelector.c **** *******************************************************************************/
 208:Generated_Source\PSoC4/CountSelector.c **** void CountSelector_SetInterruptMode(uint16 position, uint16 mode)
 209:Generated_Source\PSoC4/CountSelector.c **** {
 213              		.loc 1 209 0
 214              		.cfi_startproc
 215 0000 80B5     		push	{r7, lr}
 216              		.cfi_def_cfa_offset 8
 217              		.cfi_offset 7, -8
 218              		.cfi_offset 14, -4
 219 0002 84B0     		sub	sp, sp, #16
 220              		.cfi_def_cfa_offset 24
 221 0004 00AF     		add	r7, sp, #0
 222              		.cfi_def_cfa_register 7
 223 0006 021C     		mov	r2, r0
 224 0008 BB1D     		add	r3, r7, #6
 225 000a 1A80     		strh	r2, [r3]
 226 000c 3B1D     		add	r3, r7, #4
 227 000e 0A1C     		add	r2, r1, #0
 228 0010 1A80     		strh	r2, [r3]
 210:Generated_Source\PSoC4/CountSelector.c ****     uint32 intrCfg;
 211:Generated_Source\PSoC4/CountSelector.c ****     
 212:Generated_Source\PSoC4/CountSelector.c ****     intrCfg =  CountSelector_INTCFG & (uint32)(~(uint32)position);
 229              		.loc 1 212 0
 230 0012 0A4B     		ldr	r3, .L16
 231 0014 1B68     		ldr	r3, [r3]
 232 0016 BA1D     		add	r2, r7, #6
 233 0018 1288     		ldrh	r2, [r2]
 234 001a D243     		mvn	r2, r2
 235 001c 1340     		and	r3, r2
 236 001e FB60     		str	r3, [r7, #12]
 213:Generated_Source\PSoC4/CountSelector.c ****     CountSelector_INTCFG = intrCfg | ((uint32)position & (uint32)mode);
 237              		.loc 1 213 0
 238 0020 064B     		ldr	r3, .L16
 239 0022 BA1D     		add	r2, r7, #6
 240 0024 391D     		add	r1, r7, #4
 241 0026 1288     		ldrh	r2, [r2]
 242 0028 0988     		ldrh	r1, [r1]
 243 002a 0A40     		and	r2, r1
ARM GAS  C:\Users\AARONW~1\AppData\Local\Temp\cctBzMoa.s 			page 9


 244 002c 92B2     		uxth	r2, r2
 245 002e 111C     		mov	r1, r2
 246 0030 FA68     		ldr	r2, [r7, #12]
 247 0032 0A43     		orr	r2, r1
 248 0034 1A60     		str	r2, [r3]
 214:Generated_Source\PSoC4/CountSelector.c **** }
 249              		.loc 1 214 0
 250 0036 BD46     		mov	sp, r7
 251 0038 04B0     		add	sp, sp, #16
 252              		@ sp needed
 253 003a 80BD     		pop	{r7, pc}
 254              	.L17:
 255              		.align	2
 256              	.L16:
 257 003c 0C000440 		.word	1074003980
 258              		.cfi_endproc
 259              	.LFE4:
 260              		.size	CountSelector_SetInterruptMode, .-CountSelector_SetInterruptMode
 261              		.section	.text.CountSelector_ClearInterrupt,"ax",%progbits
 262              		.align	2
 263              		.global	CountSelector_ClearInterrupt
 264              		.code	16
 265              		.thumb_func
 266              		.type	CountSelector_ClearInterrupt, %function
 267              	CountSelector_ClearInterrupt:
 268              	.LFB5:
 215:Generated_Source\PSoC4/CountSelector.c **** 
 216:Generated_Source\PSoC4/CountSelector.c **** 
 217:Generated_Source\PSoC4/CountSelector.c **** /*******************************************************************************
 218:Generated_Source\PSoC4/CountSelector.c **** * Function Name: CountSelector_ClearInterrupt
 219:Generated_Source\PSoC4/CountSelector.c **** ****************************************************************************//**
 220:Generated_Source\PSoC4/CountSelector.c **** *
 221:Generated_Source\PSoC4/CountSelector.c **** * \brief Clears any active interrupts attached with the component and returns 
 222:Generated_Source\PSoC4/CountSelector.c **** *  the value of the interrupt status register allowing determination of which
 223:Generated_Source\PSoC4/CountSelector.c **** *  pins generated an interrupt event.
 224:Generated_Source\PSoC4/CountSelector.c **** *
 225:Generated_Source\PSoC4/CountSelector.c **** * \return 
 226:Generated_Source\PSoC4/CountSelector.c **** *  The right-shifted current value of the interrupt status register. Each pin 
 227:Generated_Source\PSoC4/CountSelector.c **** *  has one bit set if it generated an interrupt event. For example, bit 0 is 
 228:Generated_Source\PSoC4/CountSelector.c **** *  for pin 0 and bit 1 is for pin 1 of the Pins component.
 229:Generated_Source\PSoC4/CountSelector.c **** *  
 230:Generated_Source\PSoC4/CountSelector.c **** * \sideeffect
 231:Generated_Source\PSoC4/CountSelector.c **** *  Clears all bits of the physical port's interrupt status register, not just
 232:Generated_Source\PSoC4/CountSelector.c **** *  those associated with the Pins component.
 233:Generated_Source\PSoC4/CountSelector.c **** *
 234:Generated_Source\PSoC4/CountSelector.c **** * \funcusage
 235:Generated_Source\PSoC4/CountSelector.c **** *  \snippet CountSelector_SUT.c usage_CountSelector_ClearInterrupt
 236:Generated_Source\PSoC4/CountSelector.c **** *******************************************************************************/
 237:Generated_Source\PSoC4/CountSelector.c **** uint8 CountSelector_ClearInterrupt(void)
 238:Generated_Source\PSoC4/CountSelector.c **** {
 269              		.loc 1 238 0
 270              		.cfi_startproc
 271 0000 80B5     		push	{r7, lr}
 272              		.cfi_def_cfa_offset 8
 273              		.cfi_offset 7, -8
 274              		.cfi_offset 14, -4
 275 0002 82B0     		sub	sp, sp, #8
ARM GAS  C:\Users\AARONW~1\AppData\Local\Temp\cctBzMoa.s 			page 10


 276              		.cfi_def_cfa_offset 16
 277 0004 00AF     		add	r7, sp, #0
 278              		.cfi_def_cfa_register 7
 239:Generated_Source\PSoC4/CountSelector.c **** 	uint8 maskedStatus = (uint8)(CountSelector_INTSTAT & CountSelector_MASK);
 279              		.loc 1 239 0
 280 0006 084B     		ldr	r3, .L20
 281 0008 1B68     		ldr	r3, [r3]
 282 000a DAB2     		uxtb	r2, r3
 283 000c FB1D     		add	r3, r7, #7
 284 000e 0321     		mov	r1, #3
 285 0010 0A40     		and	r2, r1
 286 0012 1A70     		strb	r2, [r3]
 240:Generated_Source\PSoC4/CountSelector.c **** 	CountSelector_INTSTAT = maskedStatus;
 287              		.loc 1 240 0
 288 0014 044B     		ldr	r3, .L20
 289 0016 FA1D     		add	r2, r7, #7
 290 0018 1278     		ldrb	r2, [r2]
 291 001a 1A60     		str	r2, [r3]
 241:Generated_Source\PSoC4/CountSelector.c ****     return maskedStatus >> CountSelector_SHIFT;
 292              		.loc 1 241 0
 293 001c FB1D     		add	r3, r7, #7
 294 001e 1B78     		ldrb	r3, [r3]
 242:Generated_Source\PSoC4/CountSelector.c **** }
 295              		.loc 1 242 0
 296 0020 181C     		mov	r0, r3
 297 0022 BD46     		mov	sp, r7
 298 0024 02B0     		add	sp, sp, #8
 299              		@ sp needed
 300 0026 80BD     		pop	{r7, pc}
 301              	.L21:
 302              		.align	2
 303              	.L20:
 304 0028 10000440 		.word	1074003984
 305              		.cfi_endproc
 306              	.LFE5:
 307              		.size	CountSelector_ClearInterrupt, .-CountSelector_ClearInterrupt
 308              		.text
 309              	.Letext0:
 310              		.file 2 "Generated_Source\\PSoC4\\cytypes.h"