ARM GAS  C:\Users\AARONW~1\AppData\Local\Temp\ccSgvwwS.s 			page 1


   1              		.cpu cortex-m0
   2              		.fpu softvfp
   3              		.eabi_attribute 20, 1
   4              		.eabi_attribute 21, 1
   5              		.eabi_attribute 23, 3
   6              		.eabi_attribute 24, 1
   7              		.eabi_attribute 25, 1
   8              		.eabi_attribute 26, 1
   9              		.eabi_attribute 30, 6
  10              		.eabi_attribute 34, 0
  11              		.eabi_attribute 18, 4
  12              		.code	16
  13              		.file	"main.c"
  14              		.text
  15              	.Ltext0:
  16              		.cfi_sections	.debug_frame
  17              		.section	.rodata
  18              		.align	2
  19              	.LC1:
  20 0000 0A0D2A2A 		.ascii	"\012\015*******************************************"
  20      2A2A2A2A 
  20      2A2A2A2A 
  20      2A2A2A2A 
  20      2A2A2A2A 
  21 002d 2A2A2A2A 		.ascii	"*****************\000"
  21      2A2A2A2A 
  21      2A2A2A2A 
  21      2A2A2A2A 
  21      2A00
  22 003f 00       		.align	2
  23              	.LC3:
  24 0040 0A0D2A2A 		.ascii	"\012\015***************** BLE UART example project "
  24      2A2A2A2A 
  24      2A2A2A2A 
  24      2A2A2A2A 
  24      2A2A2A20 
  25 006d 2A2A2A2A 		.ascii	"*****************\000"
  25      2A2A2A2A 
  25      2A2A2A2A 
  25      2A2A2A2A 
  25      2A00
  26 007f 00       		.align	2
  27              	.LC5:
  28 0080 0A0D2A2A 		.ascii	"\012\015*******************************************"
  28      2A2A2A2A 
  28      2A2A2A2A 
  28      2A2A2A2A 
  28      2A2A2A2A 
  29 00ad 2A2A2A2A 		.ascii	"*****************\012\015\000"
  29      2A2A2A2A 
  29      2A2A2A2A 
  29      2A2A2A2A 
  29      2A0A0D00 
  30 00c1 000000   		.align	2
  31              	.LC7:
  32 00c4 0A0D4465 		.ascii	"\012\015Device role \011: PERIPHERAL\000"
  32      76696365 
ARM GAS  C:\Users\AARONW~1\AppData\Local\Temp\ccSgvwwS.s 			page 2


  32      20726F6C 
  32      6520093A 
  32      20504552 
  33              		.align	2
  34              	.LC9:
  35 00e0 0A0D4C6F 		.ascii	"\012\015Low Power Mode \011: DISABLED\000"
  35      7720506F 
  35      77657220 
  35      4D6F6465 
  35      20093A20 
  36 00fd 000000   		.align	2
  37              	.LC11:
  38 0100 0A0D466C 		.ascii	"\012\015Flow Control \011: DISABLED\000"
  38      6F772043 
  38      6F6E7472 
  38      6F6C2009 
  38      3A204449 
  39 011b 00       		.align	2
  40              	.LC13:
  41 011c 0A0D0909 		.ascii	"\012\015\011\011CyBle stack initilization FAILED!!!"
  41      4379426C 
  41      65207374 
  41      61636B20 
  41      696E6974 
  42 0143 200A0D20 		.ascii	" \012\015 \000"
  42      00
  43              		.section	.text.main,"ax",%progbits
  44              		.align	2
  45              		.global	main
  46              		.code	16
  47              		.thumb_func
  48              		.type	main, %function
  49              	main:
  50              	.LFB37:
  51              		.file 1 "main.c"
   1:main.c        **** /*******************************************************************************
   2:main.c        **** * File Name: main.c
   3:main.c        **** *
   4:main.c        **** * Version: 1.0
   5:main.c        **** *
   6:main.c        **** * Description:
   7:main.c        **** *  BLE example project that works as a BLE to UART bridge, using 
   8:main.c        **** *  Cypress's BLE component APIs and application layer callback. 
   9:main.c        **** *  This project demostrates a custom service usage for BLE to UART  
  10:main.c        **** *  bridge in a PERIPHERAL role.
  11:main.c        **** *
  12:main.c        **** * References:
  13:main.c        **** *  BLUETOOTH SPECIFICATION Version 4.1
  14:main.c        **** *
  15:main.c        **** * Hardware Dependency:
  16:main.c        **** *  (1) CY8CKIT-042 BLE
  17:main.c        **** *  (2) An external UART transciever (if flow control is needed) 
  18:main.c        **** *
  19:main.c        **** ********************************************************************************
  20:main.c        **** * Copyright 2015, Cypress Semiconductor Corporation.  All rights reserved.
  21:main.c        **** * You may use this file only in accordance with the license, terms, conditions,
  22:main.c        **** * disclaimers, and limitations in the end user license agreement accompanying
ARM GAS  C:\Users\AARONW~1\AppData\Local\Temp\ccSgvwwS.s 			page 3


  23:main.c        **** * the software package with which this file was provided.
  24:main.c        **** *******************************************************************************/
  25:main.c        **** 
  26:main.c        **** #include "main.h"
  27:main.c        **** #include "cypins.h"
  28:main.c        **** int main()
  29:main.c        **** {
  52              		.loc 1 29 0
  53              		.cfi_startproc
  54 0000 90B5     		push	{r4, r7, lr}
  55              		.cfi_def_cfa_offset 12
  56              		.cfi_offset 4, -12
  57              		.cfi_offset 7, -8
  58              		.cfi_offset 14, -4
  59 0002 83B0     		sub	sp, sp, #12
  60              		.cfi_def_cfa_offset 24
  61 0004 00AF     		add	r7, sp, #0
  62              		.cfi_def_cfa_register 7
  30:main.c        ****     UART_1_Start();
  63              		.loc 1 30 0
  64 0006 FFF7FEFF 		bl	UART_1_Start
  31:main.c        ****     #ifdef LOW_POWER_MODE    
  32:main.c        ****         CYBLE_LP_MODE_T         lpMode;
  33:main.c        ****         CYBLE_BLESS_STATE_T     blessState;
  34:main.c        ****     #endif
  35:main.c        ****     
  36:main.c        ****     CYBLE_API_RESULT_T      bleApiResult;
  37:main.c        ****     
  38:main.c        ****     CyGlobalIntEnable;
  65              		.loc 1 38 0
  66              	@ 38 "main.c" 1
  67 000a 62B6     		CPSIE   i
  68              	@ 0 "" 2
  39:main.c        ****     
  40:main.c        ****     /* Start UART and BLE component and display project information */
  41:main.c        ****     UART_Start();   
  69              		.loc 1 41 0
  70              		.code	16
  71 000c FFF7FEFF 		bl	UART_Start
  42:main.c        ****     bleApiResult = CyBle_Start(AppCallBack); 
  72              		.loc 1 42 0
  73 0010 BC1D     		add	r4, r7, #6
  74 0012 3F4B     		ldr	r3, .L12
  75 0014 181C     		mov	r0, r3
  76 0016 FFF7FEFF 		bl	CyBle_Start
  77 001a 031C     		mov	r3, r0
  78 001c 2380     		strh	r3, [r4]
  43:main.c        ****     
  44:main.c        ****     if(bleApiResult == CYBLE_ERROR_OK)
  79              		.loc 1 44 0
  80 001e BB1D     		add	r3, r7, #6
  81 0020 1B88     		ldrh	r3, [r3]
  82 0022 002B     		cmp	r3, #0
  83 0024 1DD1     		bne	.L2
  45:main.c        ****     {
  46:main.c        ****         #ifdef PRINT_MESSAGE_LOG
  47:main.c        ****             UART_UartPutString("\n\r************************************************************");
ARM GAS  C:\Users\AARONW~1\AppData\Local\Temp\ccSgvwwS.s 			page 4


  84              		.loc 1 47 0
  85 0026 3B4B     		ldr	r3, .L12+4
  86 0028 181C     		mov	r0, r3
  87 002a FFF7FEFF 		bl	UART_UartPutString
  48:main.c        ****             UART_UartPutString("\n\r***************** BLE UART example project *****************");
  88              		.loc 1 48 0
  89 002e 3A4B     		ldr	r3, .L12+8
  90 0030 181C     		mov	r0, r3
  91 0032 FFF7FEFF 		bl	UART_UartPutString
  49:main.c        ****             UART_UartPutString("\n\r************************************************************\n\
  92              		.loc 1 49 0
  93 0036 394B     		ldr	r3, .L12+12
  94 0038 181C     		mov	r0, r3
  95 003a FFF7FEFF 		bl	UART_UartPutString
  50:main.c        ****             UART_UartPutString("\n\rDevice role \t: PERIPHERAL");
  96              		.loc 1 50 0
  97 003e 384B     		ldr	r3, .L12+16
  98 0040 181C     		mov	r0, r3
  99 0042 FFF7FEFF 		bl	UART_UartPutString
  51:main.c        ****             
  52:main.c        ****             #ifdef LOW_POWER_MODE
  53:main.c        ****                 UART_UartPutString("\n\rLow Power Mode \t: ENABLED");
  54:main.c        ****             #else
  55:main.c        ****                 UART_UartPutString("\n\rLow Power Mode \t: DISABLED");
 100              		.loc 1 55 0
 101 0046 374B     		ldr	r3, .L12+20
 102 0048 181C     		mov	r0, r3
 103 004a FFF7FEFF 		bl	UART_UartPutString
  56:main.c        ****             #endif
  57:main.c        ****             
  58:main.c        ****             #ifdef FLOW_CONTROL
  59:main.c        ****                 UART_UartPutString("\n\rFlow Control \t: ENABLED");  
  60:main.c        ****             #else
  61:main.c        ****                 UART_UartPutString("\n\rFlow Control \t: DISABLED");
 104              		.loc 1 61 0
 105 004e 364B     		ldr	r3, .L12+24
 106 0050 181C     		mov	r0, r3
 107 0052 FFF7FEFF 		bl	UART_UartPutString
  62:main.c        ****             #endif
  63:main.c        ****             
  64:main.c        ****         #endif
  65:main.c        ****     }
  66:main.c        ****     else
  67:main.c        ****     {
  68:main.c        ****         #ifdef PRINT_MESSAGE_LOG   
  69:main.c        ****             UART_UartPutString("\n\r\t\tCyBle stack initilization FAILED!!! \n\r ");
  70:main.c        ****         #endif
  71:main.c        ****         
  72:main.c        ****         /* Enter infinite loop */
  73:main.c        ****         while(1);
  74:main.c        ****     }
  75:main.c        ****     
  76:main.c        ****     CyBle_ProcessEvents();
 108              		.loc 1 76 0
 109 0056 FFF7FEFF 		bl	CyBle_ProcessEvents
  77:main.c        ****     
  78:main.c        ****     /***************************************************************************
ARM GAS  C:\Users\AARONW~1\AppData\Local\Temp\ccSgvwwS.s 			page 5


  79:main.c        ****     * Main polling loop
  80:main.c        ****     ***************************************************************************/
  81:main.c        ****     uint8 flag = 0;
 110              		.loc 1 81 0
 111 005a 7B1D     		add	r3, r7, #5
 112 005c 0022     		mov	r2, #0
 113 005e 1A70     		strb	r2, [r3]
 114 0060 04E0     		b	.L11
 115              	.L2:
  69:main.c        ****         #endif
 116              		.loc 1 69 0
 117 0062 324B     		ldr	r3, .L12+28
 118 0064 181C     		mov	r0, r3
 119 0066 FFF7FEFF 		bl	UART_UartPutString
 120              	.L4:
  73:main.c        ****     }
 121              		.loc 1 73 0 discriminator 1
 122 006a FEE7     		b	.L4
 123              	.L11:
  82:main.c        ****     
  83:main.c        ****     while(1)
  84:main.c        ****     {              
  85:main.c        ****         //wait for user to send a byte over the serial terminal then check
  86:main.c        ****         // other buffer for data sent over BLE
  87:main.c        ****         if (UART_SpiUartGetRxBufferSize()>0){           
 124              		.loc 1 87 0
 125 006c FFF7FEFF 		bl	UART_SpiUartGetRxBufferSize
 126 0070 031E     		sub	r3, r0, #0
 127 0072 45D0     		beq	.L5
  88:main.c        ****             if (UART_1_SpiUartGetRxBufferSize() > 0){
 128              		.loc 1 88 0
 129 0074 FFF7FEFF 		bl	UART_1_SpiUartGetRxBufferSize
 130 0078 031E     		sub	r3, r0, #0
 131 007a 41D0     		beq	.L5
  89:main.c        ****                 flag = UART_1_UartGetChar();
 132              		.loc 1 89 0
 133 007c FFF7FEFF 		bl	UART_1_UartGetChar
 134 0080 021C     		mov	r2, r0
 135 0082 7B1D     		add	r3, r7, #5
 136 0084 1A70     		strb	r2, [r3]
  90:main.c        ****                 switch(flag){
 137              		.loc 1 90 0
 138 0086 7B1D     		add	r3, r7, #5
 139 0088 1B78     		ldrb	r3, [r3]
 140 008a 322B     		cmp	r3, #50
 141 008c 14D0     		beq	.L6
 142 008e 02DC     		bgt	.L7
 143 0090 312B     		cmp	r3, #49
 144 0092 05D0     		beq	.L8
 145 0094 34E0     		b	.L5
 146              	.L7:
 147 0096 332B     		cmp	r3, #51
 148 0098 1AD0     		beq	.L9
 149 009a 342B     		cmp	r3, #52
 150 009c 24D0     		beq	.L10
 151 009e 2FE0     		b	.L5
 152              	.L8:
ARM GAS  C:\Users\AARONW~1\AppData\Local\Temp\ccSgvwwS.s 			page 6


  91:main.c        ****                     case 0x31:
  92:main.c        ****                         Song1Trigger_Write(1);
 153              		.loc 1 92 0
 154 00a0 0120     		mov	r0, #1
 155 00a2 FFF7FEFF 		bl	Song1Trigger_Write
  93:main.c        ****                         CyDelay(100);
 156              		.loc 1 93 0
 157 00a6 6420     		mov	r0, #100
 158 00a8 FFF7FEFF 		bl	CyDelay
  94:main.c        ****                         Song1Trigger_Write(0);
 159              		.loc 1 94 0
 160 00ac 0020     		mov	r0, #0
 161 00ae FFF7FEFF 		bl	Song1Trigger_Write
  95:main.c        ****                         UART_1_SpiUartClearRxBuffer();
 162              		.loc 1 95 0
 163 00b2 FFF7FEFF 		bl	UART_1_SpiUartClearRxBuffer
  96:main.c        ****                         break;              
 164              		.loc 1 96 0
 165 00b6 23E0     		b	.L5
 166              	.L6:
  97:main.c        ****                         
  98:main.c        ****                     case 0x32:
  99:main.c        ****                         Song2Trigger_Write(1);
 167              		.loc 1 99 0
 168 00b8 0120     		mov	r0, #1
 169 00ba FFF7FEFF 		bl	Song2Trigger_Write
 100:main.c        ****                         CyDelay(100);
 170              		.loc 1 100 0
 171 00be 6420     		mov	r0, #100
 172 00c0 FFF7FEFF 		bl	CyDelay
 101:main.c        ****                         Song2Trigger_Write(0);
 173              		.loc 1 101 0
 174 00c4 0020     		mov	r0, #0
 175 00c6 FFF7FEFF 		bl	Song2Trigger_Write
 102:main.c        ****                         UART_1_SpiUartClearRxBuffer();
 176              		.loc 1 102 0
 177 00ca FFF7FEFF 		bl	UART_1_SpiUartClearRxBuffer
 103:main.c        ****                         break;
 178              		.loc 1 103 0
 179 00ce 17E0     		b	.L5
 180              	.L9:
 104:main.c        ****                         
 105:main.c        ****                     case 0x33:
 106:main.c        ****                         Song3Trigger_Write(1);
 181              		.loc 1 106 0
 182 00d0 0120     		mov	r0, #1
 183 00d2 FFF7FEFF 		bl	Song3Trigger_Write
 107:main.c        ****                         CyDelay(100);
 184              		.loc 1 107 0
 185 00d6 6420     		mov	r0, #100
 186 00d8 FFF7FEFF 		bl	CyDelay
 108:main.c        ****                         Song3Trigger_Write(0);
 187              		.loc 1 108 0
 188 00dc 0020     		mov	r0, #0
 189 00de FFF7FEFF 		bl	Song3Trigger_Write
 109:main.c        ****                         UART_1_SpiUartClearRxBuffer();
 190              		.loc 1 109 0
ARM GAS  C:\Users\AARONW~1\AppData\Local\Temp\ccSgvwwS.s 			page 7


 191 00e2 FFF7FEFF 		bl	UART_1_SpiUartClearRxBuffer
 110:main.c        ****                         break;
 192              		.loc 1 110 0
 193 00e6 0BE0     		b	.L5
 194              	.L10:
 111:main.c        ****                                           
 112:main.c        ****                     case 0x34:
 113:main.c        ****                         Song4Trigger_Write(1);
 195              		.loc 1 113 0
 196 00e8 0120     		mov	r0, #1
 197 00ea FFF7FEFF 		bl	Song4Trigger_Write
 114:main.c        ****                         CyDelay(100);
 198              		.loc 1 114 0
 199 00ee 6420     		mov	r0, #100
 200 00f0 FFF7FEFF 		bl	CyDelay
 115:main.c        ****                         Song4Trigger_Write(0);
 201              		.loc 1 115 0
 202 00f4 0020     		mov	r0, #0
 203 00f6 FFF7FEFF 		bl	Song4Trigger_Write
 116:main.c        ****                         UART_1_SpiUartClearRxBuffer();
 204              		.loc 1 116 0
 205 00fa FFF7FEFF 		bl	UART_1_SpiUartClearRxBuffer
 117:main.c        ****                         break;
 206              		.loc 1 117 0
 207 00fe C046     		mov	r8, r8
 208              	.L5:
 118:main.c        ****                      
 119:main.c        ****                         
 120:main.c        ****                 }
 121:main.c        ****            
 122:main.c        ****             }
 123:main.c        ****              
 124:main.c        ****         }
 125:main.c        ****         
 126:main.c        ****         
 127:main.c        ****         
 128:main.c        ****        
 129:main.c        ****         #ifdef LOW_POWER_MODE
 130:main.c        ****             
 131:main.c        ****             if((CyBle_GetState() != CYBLE_STATE_INITIALIZING) && (CyBle_GetState() != CYBLE_STATE_D
 132:main.c        ****             {
 133:main.c        ****                 /* Enter DeepSleep mode between connection intervals */
 134:main.c        ****                 
 135:main.c        ****                 lpMode = CyBle_EnterLPM(CYBLE_BLESS_DEEPSLEEP);
 136:main.c        ****                 CyGlobalIntDisable;
 137:main.c        ****                 blessState = CyBle_GetBleSsState();
 138:main.c        **** 
 139:main.c        ****                 if(lpMode == CYBLE_BLESS_DEEPSLEEP) 
 140:main.c        ****                 {   
 141:main.c        ****                     if((blessState == CYBLE_BLESS_STATE_ECO_ON || blessState == CYBLE_BLESS_STATE_D
 142:main.c        ****                             (UART_SpiUartGetTxBufferSize() + UART_GET_TX_FIFO_SR_VALID) == 0u)
 143:main.c        ****                     {
 144:main.c        ****                         #ifdef FLOW_CONTROL
 145:main.c        ****                             EnableUartRxInt();
 146:main.c        ****                         #endif
 147:main.c        ****                         
 148:main.c        ****                         CySysPmSleep();
ARM GAS  C:\Users\AARONW~1\AppData\Local\Temp\ccSgvwwS.s 			page 8


 149:main.c        ****                         
 150:main.c        ****                         #ifdef FLOW_CONTROL
 151:main.c        ****                             DisableUartRxInt();
 152:main.c        ****                         #endif
 153:main.c        ****                     }
 154:main.c        ****                 }
 155:main.c        ****                 else
 156:main.c        ****                 {
 157:main.c        ****                     if((blessState != CYBLE_BLESS_STATE_EVENT_CLOSE) && \
 158:main.c        ****                             (UART_SpiUartGetTxBufferSize() + UART_GET_TX_FIFO_SR_VALID) == 0u)
 159:main.c        ****                     {
 160:main.c        ****                         #ifdef FLOW_CONTROL
 161:main.c        ****                             EnableUartRxInt();
 162:main.c        ****                         #endif
 163:main.c        ****                         
 164:main.c        ****                         CySysPmSleep();
 165:main.c        ****                         
 166:main.c        ****                         #ifdef FLOW_CONTROL
 167:main.c        ****                             DisableUartRxInt();
 168:main.c        ****                         #endif
 169:main.c        ****                     }
 170:main.c        ****                 }
 171:main.c        ****                 CyGlobalIntEnable;
 172:main.c        ****                 
 173:main.c        ****                 /* Handle advertising led blinking */
 174:main.c        ****                 HandleLeds();
 175:main.c        ****             }
 176:main.c        ****         #else
 177:main.c        ****             HandleLeds();
 209              		.loc 1 177 0
 210 0100 FFF7FEFF 		bl	HandleLeds
 178:main.c        ****         #endif
 179:main.c        ****         
 180:main.c        ****         /*******************************************************************
 181:main.c        ****         *  Process all pending BLE events in the stack
 182:main.c        ****         *******************************************************************/       
 183:main.c        ****         HandleBleProcessing();
 211              		.loc 1 183 0
 212 0104 FFF7FEFF 		bl	HandleBleProcessing
 184:main.c        ****         CyBle_ProcessEvents();
 213              		.loc 1 184 0
 214 0108 FFF7FEFF 		bl	CyBle_ProcessEvents
 185:main.c        ****     }
 215              		.loc 1 185 0
 216 010c AEE7     		b	.L11
 217              	.L13:
 218 010e C046     		.align	2
 219              	.L12:
 220 0110 00000000 		.word	AppCallBack
 221 0114 00000000 		.word	.LC1
 222 0118 40000000 		.word	.LC3
 223 011c 80000000 		.word	.LC5
 224 0120 C4000000 		.word	.LC7
 225 0124 E0000000 		.word	.LC9
 226 0128 00010000 		.word	.LC11
 227 012c 1C010000 		.word	.LC13
 228              		.cfi_endproc
ARM GAS  C:\Users\AARONW~1\AppData\Local\Temp\ccSgvwwS.s 			page 9


 229              	.LFE37:
 230              		.size	main, .-main
 231              		.text
 232              	.Letext0:
 233              		.file 2 "Generated_Source\\PSoC4/cytypes.h"
 234              		.file 3 "Generated_Source\\PSoC4/BLE_Stack.h"