ARM GAS  C:\Users\AARONW~1\AppData\Local\Temp\cct1EPiT.s 			page 1


   1              		.cpu cortex-m0
   2              		.fpu softvfp
   3              		.eabi_attribute 20, 1
   4              		.eabi_attribute 21, 1
   5              		.eabi_attribute 23, 3
   6              		.eabi_attribute 24, 1
   7              		.eabi_attribute 25, 1
   8              		.eabi_attribute 26, 1
   9              		.eabi_attribute 30, 6
  10              		.eabi_attribute 34, 0
  11              		.eabi_attribute 18, 4
  12              		.code	16
  13              		.file	"SongCount.c"
  14              		.text
  15              	.Ltext0:
  16              		.cfi_sections	.debug_frame
  17              		.section	.text.SongCount_SetDriveMode,"ax",%progbits
  18              		.align	2
  19              		.global	SongCount_SetDriveMode
  20              		.code	16
  21              		.thumb_func
  22              		.type	SongCount_SetDriveMode, %function
  23              	SongCount_SetDriveMode:
  24              	.LFB0:
  25              		.file 1 "Generated_Source\\PSoC4\\SongCount.c"
   1:Generated_Source\PSoC4/SongCount.c **** /*******************************************************************************
   2:Generated_Source\PSoC4/SongCount.c **** * File Name: SongCount.c  
   3:Generated_Source\PSoC4/SongCount.c **** * Version 2.20
   4:Generated_Source\PSoC4/SongCount.c **** *
   5:Generated_Source\PSoC4/SongCount.c **** * Description:
   6:Generated_Source\PSoC4/SongCount.c **** *  This file contains API to enable firmware control of a Pins component.
   7:Generated_Source\PSoC4/SongCount.c **** *
   8:Generated_Source\PSoC4/SongCount.c **** ********************************************************************************
   9:Generated_Source\PSoC4/SongCount.c **** * Copyright 2008-2015, Cypress Semiconductor Corporation.  All rights reserved.
  10:Generated_Source\PSoC4/SongCount.c **** * You may use this file only in accordance with the license, terms, conditions, 
  11:Generated_Source\PSoC4/SongCount.c **** * disclaimers, and limitations in the end user license agreement accompanying 
  12:Generated_Source\PSoC4/SongCount.c **** * the software package with which this file was provided.
  13:Generated_Source\PSoC4/SongCount.c **** *******************************************************************************/
  14:Generated_Source\PSoC4/SongCount.c **** 
  15:Generated_Source\PSoC4/SongCount.c **** #include "cytypes.h"
  16:Generated_Source\PSoC4/SongCount.c **** #include "SongCount.h"
  17:Generated_Source\PSoC4/SongCount.c **** 
  18:Generated_Source\PSoC4/SongCount.c **** 
  19:Generated_Source\PSoC4/SongCount.c **** #if defined(SongCount__PC)
  20:Generated_Source\PSoC4/SongCount.c ****     #define SongCount_SetP4PinDriveMode(shift, mode)  \
  21:Generated_Source\PSoC4/SongCount.c ****     do { \
  22:Generated_Source\PSoC4/SongCount.c ****         SongCount_PC =   (SongCount_PC & \
  23:Generated_Source\PSoC4/SongCount.c ****                                 (uint32)(~(uint32)(SongCount_DRIVE_MODE_IND_MASK << \
  24:Generated_Source\PSoC4/SongCount.c ****                                 (SongCount_DRIVE_MODE_BITS * (shift))))) | \
  25:Generated_Source\PSoC4/SongCount.c ****                                 (uint32)((uint32)(mode) << \
  26:Generated_Source\PSoC4/SongCount.c ****                                 (SongCount_DRIVE_MODE_BITS * (shift))); \
  27:Generated_Source\PSoC4/SongCount.c ****     } while (0)
  28:Generated_Source\PSoC4/SongCount.c **** #else
  29:Generated_Source\PSoC4/SongCount.c ****     #if (CY_PSOC4_4200L)
  30:Generated_Source\PSoC4/SongCount.c ****         #define SongCount_SetP4PinDriveMode(shift, mode)  \
  31:Generated_Source\PSoC4/SongCount.c ****         do { \
  32:Generated_Source\PSoC4/SongCount.c ****             SongCount_USBIO_CTRL_REG = (SongCount_USBIO_CTRL_REG & \
ARM GAS  C:\Users\AARONW~1\AppData\Local\Temp\cct1EPiT.s 			page 2


  33:Generated_Source\PSoC4/SongCount.c ****                                     (uint32)(~(uint32)(SongCount_DRIVE_MODE_IND_MASK << \
  34:Generated_Source\PSoC4/SongCount.c ****                                     (SongCount_DRIVE_MODE_BITS * (shift))))) | \
  35:Generated_Source\PSoC4/SongCount.c ****                                     (uint32)((uint32)(mode) << \
  36:Generated_Source\PSoC4/SongCount.c ****                                     (SongCount_DRIVE_MODE_BITS * (shift))); \
  37:Generated_Source\PSoC4/SongCount.c ****         } while (0)
  38:Generated_Source\PSoC4/SongCount.c ****     #endif
  39:Generated_Source\PSoC4/SongCount.c **** #endif
  40:Generated_Source\PSoC4/SongCount.c ****   
  41:Generated_Source\PSoC4/SongCount.c **** 
  42:Generated_Source\PSoC4/SongCount.c **** #if defined(SongCount__PC) || (CY_PSOC4_4200L) 
  43:Generated_Source\PSoC4/SongCount.c ****     /*******************************************************************************
  44:Generated_Source\PSoC4/SongCount.c ****     * Function Name: SongCount_SetDriveMode
  45:Generated_Source\PSoC4/SongCount.c ****     ****************************************************************************//**
  46:Generated_Source\PSoC4/SongCount.c ****     *
  47:Generated_Source\PSoC4/SongCount.c ****     * \brief Sets the drive mode for each of the Pins component's pins.
  48:Generated_Source\PSoC4/SongCount.c ****     * 
  49:Generated_Source\PSoC4/SongCount.c ****     * <b>Note</b> This affects all pins in the Pins component instance. Use the
  50:Generated_Source\PSoC4/SongCount.c ****     * Per-Pin APIs if you wish to control individual pin's drive modes.
  51:Generated_Source\PSoC4/SongCount.c ****     *
  52:Generated_Source\PSoC4/SongCount.c ****     * <b>Note</b> USBIOs have limited drive functionality. Refer to the Drive Mode
  53:Generated_Source\PSoC4/SongCount.c ****     * parameter for more information.
  54:Generated_Source\PSoC4/SongCount.c ****     *
  55:Generated_Source\PSoC4/SongCount.c ****     * \param mode
  56:Generated_Source\PSoC4/SongCount.c ****     *  Mode for the selected signals. Valid options are documented in 
  57:Generated_Source\PSoC4/SongCount.c ****     *  \ref driveMode.
  58:Generated_Source\PSoC4/SongCount.c ****     *
  59:Generated_Source\PSoC4/SongCount.c ****     * \return
  60:Generated_Source\PSoC4/SongCount.c ****     *  None
  61:Generated_Source\PSoC4/SongCount.c ****     *
  62:Generated_Source\PSoC4/SongCount.c ****     * \sideeffect
  63:Generated_Source\PSoC4/SongCount.c ****     *  If you use read-modify-write operations that are not atomic, the ISR can
  64:Generated_Source\PSoC4/SongCount.c ****     *  cause corruption of this function. An ISR that interrupts this function 
  65:Generated_Source\PSoC4/SongCount.c ****     *  and performs writes to the Pins component Drive Mode registers can cause 
  66:Generated_Source\PSoC4/SongCount.c ****     *  corrupted port data. To avoid this issue, you should either use the Per-Pin
  67:Generated_Source\PSoC4/SongCount.c ****     *  APIs (primary method) or disable interrupts around this function.
  68:Generated_Source\PSoC4/SongCount.c ****     *
  69:Generated_Source\PSoC4/SongCount.c ****     * \funcusage
  70:Generated_Source\PSoC4/SongCount.c ****     *  \snippet SongCount_SUT.c usage_SongCount_SetDriveMode
  71:Generated_Source\PSoC4/SongCount.c ****     *******************************************************************************/
  72:Generated_Source\PSoC4/SongCount.c ****     void SongCount_SetDriveMode(uint8 mode)
  73:Generated_Source\PSoC4/SongCount.c ****     {
  26              		.loc 1 73 0
  27              		.cfi_startproc
  28 0000 80B5     		push	{r7, lr}
  29              		.cfi_def_cfa_offset 8
  30              		.cfi_offset 7, -8
  31              		.cfi_offset 14, -4
  32 0002 82B0     		sub	sp, sp, #8
  33              		.cfi_def_cfa_offset 16
  34 0004 00AF     		add	r7, sp, #0
  35              		.cfi_def_cfa_register 7
  36 0006 021C     		mov	r2, r0
  37 0008 FB1D     		add	r3, r7, #7
  38 000a 1A70     		strb	r2, [r3]
  74:Generated_Source\PSoC4/SongCount.c **** 		SongCount_SetP4PinDriveMode(SongCount__0__SHIFT, mode);
  39              		.loc 1 74 0
  40 000c 294B     		ldr	r3, .L2
ARM GAS  C:\Users\AARONW~1\AppData\Local\Temp\cct1EPiT.s 			page 3


  41 000e 294A     		ldr	r2, .L2
  42 0010 1268     		ldr	r2, [r2]
  43 0012 0721     		mov	r1, #7
  44 0014 8A43     		bic	r2, r1
  45 0016 111C     		mov	r1, r2
  46 0018 FA1D     		add	r2, r7, #7
  47 001a 1278     		ldrb	r2, [r2]
  48 001c 0A43     		orr	r2, r1
  49 001e 1A60     		str	r2, [r3]
  75:Generated_Source\PSoC4/SongCount.c **** 		SongCount_SetP4PinDriveMode(SongCount__1__SHIFT, mode);
  50              		.loc 1 75 0
  51 0020 244B     		ldr	r3, .L2
  52 0022 244A     		ldr	r2, .L2
  53 0024 1268     		ldr	r2, [r2]
  54 0026 3821     		mov	r1, #56
  55 0028 8A43     		bic	r2, r1
  56 002a 111C     		mov	r1, r2
  57 002c FA1D     		add	r2, r7, #7
  58 002e 1278     		ldrb	r2, [r2]
  59 0030 D200     		lsl	r2, r2, #3
  60 0032 0A43     		orr	r2, r1
  61 0034 1A60     		str	r2, [r3]
  76:Generated_Source\PSoC4/SongCount.c **** 		SongCount_SetP4PinDriveMode(SongCount__2__SHIFT, mode);
  62              		.loc 1 76 0
  63 0036 1F4B     		ldr	r3, .L2
  64 0038 1E4A     		ldr	r2, .L2
  65 003a 1268     		ldr	r2, [r2]
  66 003c 1E49     		ldr	r1, .L2+4
  67 003e 1140     		and	r1, r2
  68 0040 FA1D     		add	r2, r7, #7
  69 0042 1278     		ldrb	r2, [r2]
  70 0044 9201     		lsl	r2, r2, #6
  71 0046 0A43     		orr	r2, r1
  72 0048 1A60     		str	r2, [r3]
  77:Generated_Source\PSoC4/SongCount.c **** 		SongCount_SetP4PinDriveMode(SongCount__3__SHIFT, mode);
  73              		.loc 1 77 0
  74 004a 1A4B     		ldr	r3, .L2
  75 004c 194A     		ldr	r2, .L2
  76 004e 1268     		ldr	r2, [r2]
  77 0050 1A49     		ldr	r1, .L2+8
  78 0052 1140     		and	r1, r2
  79 0054 FA1D     		add	r2, r7, #7
  80 0056 1278     		ldrb	r2, [r2]
  81 0058 5202     		lsl	r2, r2, #9
  82 005a 0A43     		orr	r2, r1
  83 005c 1A60     		str	r2, [r3]
  78:Generated_Source\PSoC4/SongCount.c **** 		SongCount_SetP4PinDriveMode(SongCount__4__SHIFT, mode);
  84              		.loc 1 78 0
  85 005e 154B     		ldr	r3, .L2
  86 0060 144A     		ldr	r2, .L2
  87 0062 1268     		ldr	r2, [r2]
  88 0064 1649     		ldr	r1, .L2+12
  89 0066 1140     		and	r1, r2
  90 0068 FA1D     		add	r2, r7, #7
  91 006a 1278     		ldrb	r2, [r2]
  92 006c 1203     		lsl	r2, r2, #12
  93 006e 0A43     		orr	r2, r1
ARM GAS  C:\Users\AARONW~1\AppData\Local\Temp\cct1EPiT.s 			page 4


  94 0070 1A60     		str	r2, [r3]
  79:Generated_Source\PSoC4/SongCount.c **** 		SongCount_SetP4PinDriveMode(SongCount__5__SHIFT, mode);
  95              		.loc 1 79 0
  96 0072 104B     		ldr	r3, .L2
  97 0074 0F4A     		ldr	r2, .L2
  98 0076 1268     		ldr	r2, [r2]
  99 0078 1249     		ldr	r1, .L2+16
 100 007a 1140     		and	r1, r2
 101 007c FA1D     		add	r2, r7, #7
 102 007e 1278     		ldrb	r2, [r2]
 103 0080 D203     		lsl	r2, r2, #15
 104 0082 0A43     		orr	r2, r1
 105 0084 1A60     		str	r2, [r3]
  80:Generated_Source\PSoC4/SongCount.c **** 		SongCount_SetP4PinDriveMode(SongCount__6__SHIFT, mode);
 106              		.loc 1 80 0
 107 0086 0B4B     		ldr	r3, .L2
 108 0088 0A4A     		ldr	r2, .L2
 109 008a 1268     		ldr	r2, [r2]
 110 008c 0E49     		ldr	r1, .L2+20
 111 008e 1140     		and	r1, r2
 112 0090 FA1D     		add	r2, r7, #7
 113 0092 1278     		ldrb	r2, [r2]
 114 0094 9204     		lsl	r2, r2, #18
 115 0096 0A43     		orr	r2, r1
 116 0098 1A60     		str	r2, [r3]
  81:Generated_Source\PSoC4/SongCount.c **** 		SongCount_SetP4PinDriveMode(SongCount__7__SHIFT, mode);
 117              		.loc 1 81 0
 118 009a 064B     		ldr	r3, .L2
 119 009c 054A     		ldr	r2, .L2
 120 009e 1268     		ldr	r2, [r2]
 121 00a0 0A49     		ldr	r1, .L2+24
 122 00a2 1140     		and	r1, r2
 123 00a4 FA1D     		add	r2, r7, #7
 124 00a6 1278     		ldrb	r2, [r2]
 125 00a8 5205     		lsl	r2, r2, #21
 126 00aa 0A43     		orr	r2, r1
 127 00ac 1A60     		str	r2, [r3]
  82:Generated_Source\PSoC4/SongCount.c ****     }
 128              		.loc 1 82 0
 129 00ae BD46     		mov	sp, r7
 130 00b0 02B0     		add	sp, sp, #8
 131              		@ sp needed
 132 00b2 80BD     		pop	{r7, pc}
 133              	.L3:
 134              		.align	2
 135              	.L2:
 136 00b4 08030440 		.word	1074004744
 137 00b8 3FFEFFFF 		.word	-449
 138 00bc FFF1FFFF 		.word	-3585
 139 00c0 FF8FFFFF 		.word	-28673
 140 00c4 FF7FFCFF 		.word	-229377
 141 00c8 FFFFE3FF 		.word	-1835009
 142 00cc FFFF1FFF 		.word	-14680065
 143              		.cfi_endproc
 144              	.LFE0:
 145              		.size	SongCount_SetDriveMode, .-SongCount_SetDriveMode
 146              		.section	.text.SongCount_Write,"ax",%progbits
ARM GAS  C:\Users\AARONW~1\AppData\Local\Temp\cct1EPiT.s 			page 5


 147              		.align	2
 148              		.global	SongCount_Write
 149              		.code	16
 150              		.thumb_func
 151              		.type	SongCount_Write, %function
 152              	SongCount_Write:
 153              	.LFB1:
  83:Generated_Source\PSoC4/SongCount.c **** #endif
  84:Generated_Source\PSoC4/SongCount.c **** 
  85:Generated_Source\PSoC4/SongCount.c **** 
  86:Generated_Source\PSoC4/SongCount.c **** /*******************************************************************************
  87:Generated_Source\PSoC4/SongCount.c **** * Function Name: SongCount_Write
  88:Generated_Source\PSoC4/SongCount.c **** ****************************************************************************//**
  89:Generated_Source\PSoC4/SongCount.c **** *
  90:Generated_Source\PSoC4/SongCount.c **** * \brief Writes the value to the physical port (data output register), masking
  91:Generated_Source\PSoC4/SongCount.c **** *  and shifting the bits appropriately. 
  92:Generated_Source\PSoC4/SongCount.c **** *
  93:Generated_Source\PSoC4/SongCount.c **** * The data output register controls the signal applied to the physical pin in 
  94:Generated_Source\PSoC4/SongCount.c **** * conjunction with the drive mode parameter. This function avoids changing 
  95:Generated_Source\PSoC4/SongCount.c **** * other bits in the port by using the appropriate method (read-modify-write or
  96:Generated_Source\PSoC4/SongCount.c **** * bit banding).
  97:Generated_Source\PSoC4/SongCount.c **** *
  98:Generated_Source\PSoC4/SongCount.c **** * <b>Note</b> This function should not be used on a hardware digital output pin 
  99:Generated_Source\PSoC4/SongCount.c **** * as it is driven by the hardware signal attached to it.
 100:Generated_Source\PSoC4/SongCount.c **** *
 101:Generated_Source\PSoC4/SongCount.c **** * \param value
 102:Generated_Source\PSoC4/SongCount.c **** *  Value to write to the component instance.
 103:Generated_Source\PSoC4/SongCount.c **** *
 104:Generated_Source\PSoC4/SongCount.c **** * \return 
 105:Generated_Source\PSoC4/SongCount.c **** *  None 
 106:Generated_Source\PSoC4/SongCount.c **** *
 107:Generated_Source\PSoC4/SongCount.c **** * \sideeffect
 108:Generated_Source\PSoC4/SongCount.c **** *  If you use read-modify-write operations that are not atomic; the Interrupt 
 109:Generated_Source\PSoC4/SongCount.c **** *  Service Routines (ISR) can cause corruption of this function. An ISR that 
 110:Generated_Source\PSoC4/SongCount.c **** *  interrupts this function and performs writes to the Pins component data 
 111:Generated_Source\PSoC4/SongCount.c **** *  register can cause corrupted port data. To avoid this issue, you should 
 112:Generated_Source\PSoC4/SongCount.c **** *  either use the Per-Pin APIs (primary method) or disable interrupts around 
 113:Generated_Source\PSoC4/SongCount.c **** *  this function.
 114:Generated_Source\PSoC4/SongCount.c **** *
 115:Generated_Source\PSoC4/SongCount.c **** * \funcusage
 116:Generated_Source\PSoC4/SongCount.c **** *  \snippet SongCount_SUT.c usage_SongCount_Write
 117:Generated_Source\PSoC4/SongCount.c **** *******************************************************************************/
 118:Generated_Source\PSoC4/SongCount.c **** void SongCount_Write(uint8 value)
 119:Generated_Source\PSoC4/SongCount.c **** {
 154              		.loc 1 119 0
 155              		.cfi_startproc
 156 0000 80B5     		push	{r7, lr}
 157              		.cfi_def_cfa_offset 8
 158              		.cfi_offset 7, -8
 159              		.cfi_offset 14, -4
 160 0002 84B0     		sub	sp, sp, #16
 161              		.cfi_def_cfa_offset 24
 162 0004 00AF     		add	r7, sp, #0
 163              		.cfi_def_cfa_register 7
 164 0006 021C     		mov	r2, r0
 165 0008 FB1D     		add	r3, r7, #7
 166 000a 1A70     		strb	r2, [r3]
ARM GAS  C:\Users\AARONW~1\AppData\Local\Temp\cct1EPiT.s 			page 6


 120:Generated_Source\PSoC4/SongCount.c ****     uint8 drVal = (uint8)(SongCount_DR & (uint8)(~SongCount_MASK));
 167              		.loc 1 120 0
 168 000c 0B4B     		ldr	r3, .L5
 169 000e 1B68     		ldr	r3, [r3]
 170 0010 0F23     		mov	r3, #15
 171 0012 FB18     		add	r3, r7, r3
 172 0014 0022     		mov	r2, #0
 173 0016 1A70     		strb	r2, [r3]
 121:Generated_Source\PSoC4/SongCount.c ****     drVal = (drVal | ((uint8)(value << SongCount_SHIFT) & SongCount_MASK));
 174              		.loc 1 121 0
 175 0018 0F23     		mov	r3, #15
 176 001a FB18     		add	r3, r7, r3
 177 001c 0F22     		mov	r2, #15
 178 001e B918     		add	r1, r7, r2
 179 0020 FA1D     		add	r2, r7, #7
 180 0022 0978     		ldrb	r1, [r1]
 181 0024 1278     		ldrb	r2, [r2]
 182 0026 0A43     		orr	r2, r1
 183 0028 1A70     		strb	r2, [r3]
 122:Generated_Source\PSoC4/SongCount.c ****     SongCount_DR = (uint32)drVal;
 184              		.loc 1 122 0
 185 002a 044B     		ldr	r3, .L5
 186 002c 0F22     		mov	r2, #15
 187 002e BA18     		add	r2, r7, r2
 188 0030 1278     		ldrb	r2, [r2]
 189 0032 1A60     		str	r2, [r3]
 123:Generated_Source\PSoC4/SongCount.c **** }
 190              		.loc 1 123 0
 191 0034 BD46     		mov	sp, r7
 192 0036 04B0     		add	sp, sp, #16
 193              		@ sp needed
 194 0038 80BD     		pop	{r7, pc}
 195              	.L6:
 196 003a C046     		.align	2
 197              	.L5:
 198 003c 00030440 		.word	1074004736
 199              		.cfi_endproc
 200              	.LFE1:
 201              		.size	SongCount_Write, .-SongCount_Write
 202              		.section	.text.SongCount_Read,"ax",%progbits
 203              		.align	2
 204              		.global	SongCount_Read
 205              		.code	16
 206              		.thumb_func
 207              		.type	SongCount_Read, %function
 208              	SongCount_Read:
 209              	.LFB2:
 124:Generated_Source\PSoC4/SongCount.c **** 
 125:Generated_Source\PSoC4/SongCount.c **** 
 126:Generated_Source\PSoC4/SongCount.c **** /*******************************************************************************
 127:Generated_Source\PSoC4/SongCount.c **** * Function Name: SongCount_Read
 128:Generated_Source\PSoC4/SongCount.c **** ****************************************************************************//**
 129:Generated_Source\PSoC4/SongCount.c **** *
 130:Generated_Source\PSoC4/SongCount.c **** * \brief Reads the associated physical port (pin status register) and masks 
 131:Generated_Source\PSoC4/SongCount.c **** *  the required bits according to the width and bit position of the component
 132:Generated_Source\PSoC4/SongCount.c **** *  instance. 
 133:Generated_Source\PSoC4/SongCount.c **** *
ARM GAS  C:\Users\AARONW~1\AppData\Local\Temp\cct1EPiT.s 			page 7


 134:Generated_Source\PSoC4/SongCount.c **** * The pin's status register returns the current logic level present on the 
 135:Generated_Source\PSoC4/SongCount.c **** * physical pin.
 136:Generated_Source\PSoC4/SongCount.c **** *
 137:Generated_Source\PSoC4/SongCount.c **** * \return 
 138:Generated_Source\PSoC4/SongCount.c **** *  The current value for the pins in the component as a right justified number.
 139:Generated_Source\PSoC4/SongCount.c **** *
 140:Generated_Source\PSoC4/SongCount.c **** * \funcusage
 141:Generated_Source\PSoC4/SongCount.c **** *  \snippet SongCount_SUT.c usage_SongCount_Read  
 142:Generated_Source\PSoC4/SongCount.c **** *******************************************************************************/
 143:Generated_Source\PSoC4/SongCount.c **** uint8 SongCount_Read(void)
 144:Generated_Source\PSoC4/SongCount.c **** {
 210              		.loc 1 144 0
 211              		.cfi_startproc
 212 0000 80B5     		push	{r7, lr}
 213              		.cfi_def_cfa_offset 8
 214              		.cfi_offset 7, -8
 215              		.cfi_offset 14, -4
 216 0002 00AF     		add	r7, sp, #0
 217              		.cfi_def_cfa_register 7
 145:Generated_Source\PSoC4/SongCount.c ****     return (uint8)((SongCount_PS & SongCount_MASK) >> SongCount_SHIFT);
 218              		.loc 1 145 0
 219 0004 024B     		ldr	r3, .L9
 220 0006 1B68     		ldr	r3, [r3]
 221 0008 DBB2     		uxtb	r3, r3
 146:Generated_Source\PSoC4/SongCount.c **** }
 222              		.loc 1 146 0
 223 000a 181C     		mov	r0, r3
 224 000c BD46     		mov	sp, r7
 225              		@ sp needed
 226 000e 80BD     		pop	{r7, pc}
 227              	.L10:
 228              		.align	2
 229              	.L9:
 230 0010 04030440 		.word	1074004740
 231              		.cfi_endproc
 232              	.LFE2:
 233              		.size	SongCount_Read, .-SongCount_Read
 234              		.section	.text.SongCount_ReadDataReg,"ax",%progbits
 235              		.align	2
 236              		.global	SongCount_ReadDataReg
 237              		.code	16
 238              		.thumb_func
 239              		.type	SongCount_ReadDataReg, %function
 240              	SongCount_ReadDataReg:
 241              	.LFB3:
 147:Generated_Source\PSoC4/SongCount.c **** 
 148:Generated_Source\PSoC4/SongCount.c **** 
 149:Generated_Source\PSoC4/SongCount.c **** /*******************************************************************************
 150:Generated_Source\PSoC4/SongCount.c **** * Function Name: SongCount_ReadDataReg
 151:Generated_Source\PSoC4/SongCount.c **** ****************************************************************************//**
 152:Generated_Source\PSoC4/SongCount.c **** *
 153:Generated_Source\PSoC4/SongCount.c **** * \brief Reads the associated physical port's data output register and masks 
 154:Generated_Source\PSoC4/SongCount.c **** *  the correct bits according to the width and bit position of the component 
 155:Generated_Source\PSoC4/SongCount.c **** *  instance. 
 156:Generated_Source\PSoC4/SongCount.c **** *
 157:Generated_Source\PSoC4/SongCount.c **** * The data output register controls the signal applied to the physical pin in 
 158:Generated_Source\PSoC4/SongCount.c **** * conjunction with the drive mode parameter. This is not the same as the 
ARM GAS  C:\Users\AARONW~1\AppData\Local\Temp\cct1EPiT.s 			page 8


 159:Generated_Source\PSoC4/SongCount.c **** * preferred SongCount_Read() API because the 
 160:Generated_Source\PSoC4/SongCount.c **** * SongCount_ReadDataReg() reads the data register instead of the status 
 161:Generated_Source\PSoC4/SongCount.c **** * register. For output pins this is a useful function to determine the value 
 162:Generated_Source\PSoC4/SongCount.c **** * just written to the pin.
 163:Generated_Source\PSoC4/SongCount.c **** *
 164:Generated_Source\PSoC4/SongCount.c **** * \return 
 165:Generated_Source\PSoC4/SongCount.c **** *  The current value of the data register masked and shifted into a right 
 166:Generated_Source\PSoC4/SongCount.c **** *  justified number for the component instance.
 167:Generated_Source\PSoC4/SongCount.c **** *
 168:Generated_Source\PSoC4/SongCount.c **** * \funcusage
 169:Generated_Source\PSoC4/SongCount.c **** *  \snippet SongCount_SUT.c usage_SongCount_ReadDataReg 
 170:Generated_Source\PSoC4/SongCount.c **** *******************************************************************************/
 171:Generated_Source\PSoC4/SongCount.c **** uint8 SongCount_ReadDataReg(void)
 172:Generated_Source\PSoC4/SongCount.c **** {
 242              		.loc 1 172 0
 243              		.cfi_startproc
 244 0000 80B5     		push	{r7, lr}
 245              		.cfi_def_cfa_offset 8
 246              		.cfi_offset 7, -8
 247              		.cfi_offset 14, -4
 248 0002 00AF     		add	r7, sp, #0
 249              		.cfi_def_cfa_register 7
 173:Generated_Source\PSoC4/SongCount.c ****     return (uint8)((SongCount_DR & SongCount_MASK) >> SongCount_SHIFT);
 250              		.loc 1 173 0
 251 0004 024B     		ldr	r3, .L13
 252 0006 1B68     		ldr	r3, [r3]
 253 0008 DBB2     		uxtb	r3, r3
 174:Generated_Source\PSoC4/SongCount.c **** }
 254              		.loc 1 174 0
 255 000a 181C     		mov	r0, r3
 256 000c BD46     		mov	sp, r7
 257              		@ sp needed
 258 000e 80BD     		pop	{r7, pc}
 259              	.L14:
 260              		.align	2
 261              	.L13:
 262 0010 00030440 		.word	1074004736
 263              		.cfi_endproc
 264              	.LFE3:
 265              		.size	SongCount_ReadDataReg, .-SongCount_ReadDataReg
 266              		.section	.text.SongCount_SetInterruptMode,"ax",%progbits
 267              		.align	2
 268              		.global	SongCount_SetInterruptMode
 269              		.code	16
 270              		.thumb_func
 271              		.type	SongCount_SetInterruptMode, %function
 272              	SongCount_SetInterruptMode:
 273              	.LFB4:
 175:Generated_Source\PSoC4/SongCount.c **** 
 176:Generated_Source\PSoC4/SongCount.c **** 
 177:Generated_Source\PSoC4/SongCount.c **** /*******************************************************************************
 178:Generated_Source\PSoC4/SongCount.c **** * Function Name: SongCount_SetInterruptMode
 179:Generated_Source\PSoC4/SongCount.c **** ****************************************************************************//**
 180:Generated_Source\PSoC4/SongCount.c **** *
 181:Generated_Source\PSoC4/SongCount.c **** * \brief Configures the interrupt mode for each of the Pins component's
 182:Generated_Source\PSoC4/SongCount.c **** *  pins. Alternatively you may set the interrupt mode for all the pins
 183:Generated_Source\PSoC4/SongCount.c **** *  specified in the Pins component.
ARM GAS  C:\Users\AARONW~1\AppData\Local\Temp\cct1EPiT.s 			page 9


 184:Generated_Source\PSoC4/SongCount.c **** *
 185:Generated_Source\PSoC4/SongCount.c **** *  <b>Note</b> The interrupt is port-wide and therefore any enabled pin
 186:Generated_Source\PSoC4/SongCount.c **** *  interrupt may trigger it.
 187:Generated_Source\PSoC4/SongCount.c **** *
 188:Generated_Source\PSoC4/SongCount.c **** * \param position
 189:Generated_Source\PSoC4/SongCount.c **** *  The pin position as listed in the Pins component. You may OR these to be 
 190:Generated_Source\PSoC4/SongCount.c **** *  able to configure the interrupt mode of multiple pins within a Pins 
 191:Generated_Source\PSoC4/SongCount.c **** *  component. Or you may use SongCount_INTR_ALL to configure the
 192:Generated_Source\PSoC4/SongCount.c **** *  interrupt mode of all the pins in the Pins component.       
 193:Generated_Source\PSoC4/SongCount.c **** *  - SongCount_0_INTR       (First pin in the list)
 194:Generated_Source\PSoC4/SongCount.c **** *  - SongCount_1_INTR       (Second pin in the list)
 195:Generated_Source\PSoC4/SongCount.c **** *  - ...
 196:Generated_Source\PSoC4/SongCount.c **** *  - SongCount_INTR_ALL     (All pins in Pins component)
 197:Generated_Source\PSoC4/SongCount.c **** *
 198:Generated_Source\PSoC4/SongCount.c **** * \param mode
 199:Generated_Source\PSoC4/SongCount.c **** *  Interrupt mode for the selected pins. Valid options are documented in
 200:Generated_Source\PSoC4/SongCount.c **** *  \ref intrMode.
 201:Generated_Source\PSoC4/SongCount.c **** *
 202:Generated_Source\PSoC4/SongCount.c **** * \return 
 203:Generated_Source\PSoC4/SongCount.c **** *  None
 204:Generated_Source\PSoC4/SongCount.c **** *  
 205:Generated_Source\PSoC4/SongCount.c **** * \sideeffect
 206:Generated_Source\PSoC4/SongCount.c **** *  It is recommended that the interrupt be disabled before calling this 
 207:Generated_Source\PSoC4/SongCount.c **** *  function to avoid unintended interrupt requests. Note that the interrupt
 208:Generated_Source\PSoC4/SongCount.c **** *  type is port wide, and therefore will trigger for any enabled pin on the 
 209:Generated_Source\PSoC4/SongCount.c **** *  port.
 210:Generated_Source\PSoC4/SongCount.c **** *
 211:Generated_Source\PSoC4/SongCount.c **** * \funcusage
 212:Generated_Source\PSoC4/SongCount.c **** *  \snippet SongCount_SUT.c usage_SongCount_SetInterruptMode
 213:Generated_Source\PSoC4/SongCount.c **** *******************************************************************************/
 214:Generated_Source\PSoC4/SongCount.c **** void SongCount_SetInterruptMode(uint16 position, uint16 mode)
 215:Generated_Source\PSoC4/SongCount.c **** {
 274              		.loc 1 215 0
 275              		.cfi_startproc
 276 0000 80B5     		push	{r7, lr}
 277              		.cfi_def_cfa_offset 8
 278              		.cfi_offset 7, -8
 279              		.cfi_offset 14, -4
 280 0002 84B0     		sub	sp, sp, #16
 281              		.cfi_def_cfa_offset 24
 282 0004 00AF     		add	r7, sp, #0
 283              		.cfi_def_cfa_register 7
 284 0006 021C     		mov	r2, r0
 285 0008 BB1D     		add	r3, r7, #6
 286 000a 1A80     		strh	r2, [r3]
 287 000c 3B1D     		add	r3, r7, #4
 288 000e 0A1C     		add	r2, r1, #0
 289 0010 1A80     		strh	r2, [r3]
 216:Generated_Source\PSoC4/SongCount.c ****     uint32 intrCfg;
 217:Generated_Source\PSoC4/SongCount.c ****     
 218:Generated_Source\PSoC4/SongCount.c ****     intrCfg =  SongCount_INTCFG & (uint32)(~(uint32)position);
 290              		.loc 1 218 0
 291 0012 0A4B     		ldr	r3, .L16
 292 0014 1B68     		ldr	r3, [r3]
 293 0016 BA1D     		add	r2, r7, #6
 294 0018 1288     		ldrh	r2, [r2]
 295 001a D243     		mvn	r2, r2
ARM GAS  C:\Users\AARONW~1\AppData\Local\Temp\cct1EPiT.s 			page 10


 296 001c 1340     		and	r3, r2
 297 001e FB60     		str	r3, [r7, #12]
 219:Generated_Source\PSoC4/SongCount.c ****     SongCount_INTCFG = intrCfg | ((uint32)position & (uint32)mode);
 298              		.loc 1 219 0
 299 0020 064B     		ldr	r3, .L16
 300 0022 BA1D     		add	r2, r7, #6
 301 0024 391D     		add	r1, r7, #4
 302 0026 1288     		ldrh	r2, [r2]
 303 0028 0988     		ldrh	r1, [r1]
 304 002a 0A40     		and	r2, r1
 305 002c 92B2     		uxth	r2, r2
 306 002e 111C     		mov	r1, r2
 307 0030 FA68     		ldr	r2, [r7, #12]
 308 0032 0A43     		orr	r2, r1
 309 0034 1A60     		str	r2, [r3]
 220:Generated_Source\PSoC4/SongCount.c **** }
 310              		.loc 1 220 0
 311 0036 BD46     		mov	sp, r7
 312 0038 04B0     		add	sp, sp, #16
 313              		@ sp needed
 314 003a 80BD     		pop	{r7, pc}
 315              	.L17:
 316              		.align	2
 317              	.L16:
 318 003c 0C030440 		.word	1074004748
 319              		.cfi_endproc
 320              	.LFE4:
 321              		.size	SongCount_SetInterruptMode, .-SongCount_SetInterruptMode
 322              		.section	.text.SongCount_ClearInterrupt,"ax",%progbits
 323              		.align	2
 324              		.global	SongCount_ClearInterrupt
 325              		.code	16
 326              		.thumb_func
 327              		.type	SongCount_ClearInterrupt, %function
 328              	SongCount_ClearInterrupt:
 329              	.LFB5:
 221:Generated_Source\PSoC4/SongCount.c **** 
 222:Generated_Source\PSoC4/SongCount.c **** 
 223:Generated_Source\PSoC4/SongCount.c **** /*******************************************************************************
 224:Generated_Source\PSoC4/SongCount.c **** * Function Name: SongCount_ClearInterrupt
 225:Generated_Source\PSoC4/SongCount.c **** ****************************************************************************//**
 226:Generated_Source\PSoC4/SongCount.c **** *
 227:Generated_Source\PSoC4/SongCount.c **** * \brief Clears any active interrupts attached with the component and returns 
 228:Generated_Source\PSoC4/SongCount.c **** *  the value of the interrupt status register allowing determination of which
 229:Generated_Source\PSoC4/SongCount.c **** *  pins generated an interrupt event.
 230:Generated_Source\PSoC4/SongCount.c **** *
 231:Generated_Source\PSoC4/SongCount.c **** * \return 
 232:Generated_Source\PSoC4/SongCount.c **** *  The right-shifted current value of the interrupt status register. Each pin 
 233:Generated_Source\PSoC4/SongCount.c **** *  has one bit set if it generated an interrupt event. For example, bit 0 is 
 234:Generated_Source\PSoC4/SongCount.c **** *  for pin 0 and bit 1 is for pin 1 of the Pins component.
 235:Generated_Source\PSoC4/SongCount.c **** *  
 236:Generated_Source\PSoC4/SongCount.c **** * \sideeffect
 237:Generated_Source\PSoC4/SongCount.c **** *  Clears all bits of the physical port's interrupt status register, not just
 238:Generated_Source\PSoC4/SongCount.c **** *  those associated with the Pins component.
 239:Generated_Source\PSoC4/SongCount.c **** *
 240:Generated_Source\PSoC4/SongCount.c **** * \funcusage
 241:Generated_Source\PSoC4/SongCount.c **** *  \snippet SongCount_SUT.c usage_SongCount_ClearInterrupt
ARM GAS  C:\Users\AARONW~1\AppData\Local\Temp\cct1EPiT.s 			page 11


 242:Generated_Source\PSoC4/SongCount.c **** *******************************************************************************/
 243:Generated_Source\PSoC4/SongCount.c **** uint8 SongCount_ClearInterrupt(void)
 244:Generated_Source\PSoC4/SongCount.c **** {
 330              		.loc 1 244 0
 331              		.cfi_startproc
 332 0000 80B5     		push	{r7, lr}
 333              		.cfi_def_cfa_offset 8
 334              		.cfi_offset 7, -8
 335              		.cfi_offset 14, -4
 336 0002 82B0     		sub	sp, sp, #8
 337              		.cfi_def_cfa_offset 16
 338 0004 00AF     		add	r7, sp, #0
 339              		.cfi_def_cfa_register 7
 245:Generated_Source\PSoC4/SongCount.c **** 	uint8 maskedStatus = (uint8)(SongCount_INTSTAT & SongCount_MASK);
 340              		.loc 1 245 0
 341 0006 074B     		ldr	r3, .L20
 342 0008 1A68     		ldr	r2, [r3]
 343 000a FB1D     		add	r3, r7, #7
 344 000c 1A70     		strb	r2, [r3]
 246:Generated_Source\PSoC4/SongCount.c **** 	SongCount_INTSTAT = maskedStatus;
 345              		.loc 1 246 0
 346 000e 054B     		ldr	r3, .L20
 347 0010 FA1D     		add	r2, r7, #7
 348 0012 1278     		ldrb	r2, [r2]
 349 0014 1A60     		str	r2, [r3]
 247:Generated_Source\PSoC4/SongCount.c ****     return maskedStatus >> SongCount_SHIFT;
 350              		.loc 1 247 0
 351 0016 FB1D     		add	r3, r7, #7
 352 0018 1B78     		ldrb	r3, [r3]
 248:Generated_Source\PSoC4/SongCount.c **** }
 353              		.loc 1 248 0
 354 001a 181C     		mov	r0, r3
 355 001c BD46     		mov	sp, r7
 356 001e 02B0     		add	sp, sp, #8
 357              		@ sp needed
 358 0020 80BD     		pop	{r7, pc}
 359              	.L21:
 360 0022 C046     		.align	2
 361              	.L20:
 362 0024 10030440 		.word	1074004752
 363              		.cfi_endproc
 364              	.LFE5:
 365              		.size	SongCount_ClearInterrupt, .-SongCount_ClearInterrupt
 366              		.text
 367              	.Letext0:
 368              		.file 2 "Generated_Source\\PSoC4\\cytypes.h"